(imatplotlib.font_manager
FontManager
p1
(dp2
S'afm_lookup_cache'
p3
(dp4
sS'ttflist'
p5
(lp6
ccopy_reg
_reconstructor
p7
(cmatplotlib.font_manager
FontEntry
p8
c__builtin__
object
p9
NtRp10
(dp11
S'style'
p12
S'normal'
p13
sS'name'
p14
S'cmb10'
p15
sS'weight'
p16
I400
sS'stretch'
p17
g13
sS'variant'
p18
g13
sS'fname'
p19
S'/usr/share/matplotlib/mpl-data/fonts/ttf/cmb10.ttf'
p20
sS'size'
p21
S'scalable'
p22
sbag7
(g8
g9
NtRp23
(dp24
g12
g13
sg14
S'cmex10'
p25
sg16
I400
sg17
g13
sg18
g13
sg19
S'/usr/share/matplotlib/mpl-data/fonts/ttf/cmex10.ttf'
p26
sg21
g22
sbag7
(g8
g9
NtRp27
(dp28
g12
S'italic'
p29
sg14
S'STIXNonUnicode'
p30
sg16
I400
sg17
g13
sg18
g13
sg19
S'/usr/share/matplotlib/mpl-data/fonts/ttf/STIXNonUniIta.ttf'
p31
sg21
g22
sbag7
(g8
g9
NtRp32
(dp33
g12
g13
sg14
S'STIXNonUnicode'
p34
sg16
I400
sg17
g13
sg18
g13
sg19
S'/usr/share/matplotlib/mpl-data/fonts/ttf/STIXNonUni.ttf'
p35
sg21
g22
sbag7
(g8
g9
NtRp36
(dp37
g12
g13
sg14
S'STIXSize5'
p38
sg16
I400
sg17
g13
sg18
g13
sg19
S'/usr/share/matplotlib/mpl-data/fonts/ttf/STIXSiz5Sym.ttf'
p39
sg21
g22
sbag7
(g8
g9
NtRp40
(dp41
g12
g13
sg14
S'cmtt10'
p42
sg16
I400
sg17
g13
sg18
g13
sg19
S'/usr/share/matplotlib/mpl-data/fonts/ttf/cmtt10.ttf'
p43
sg21
g22
sbag7
(g8
g9
NtRp44
(dp45
g12
g13
sg14
S'STIXGeneral'
p46
sg16
I400
sg17
g13
sg18
g13
sg19
S'/usr/share/matplotlib/mpl-data/fonts/ttf/STIXGeneral.ttf'
p47
sg21
g22
sbag7
(g8
g9
NtRp48
(dp49
g12
g29
sg14
S'STIXNonUnicode'
p50
sg16
I700
sg17
g13
sg18
g13
sg19
S'/usr/share/matplotlib/mpl-data/fonts/ttf/STIXNonUniBolIta.ttf'
p51
sg21
g22
sbag7
(g8
g9
NtRp52
(dp53
g12
g13
sg14
S'STIXSize3'
p54
sg16
I700
sg17
g13
sg18
g13
sg19
S'/usr/share/matplotlib/mpl-data/fonts/ttf/STIXSiz3SymBol.ttf'
p55
sg21
g22
sbag7
(g8
g9
NtRp56
(dp57
g12
g13
sg14
S'STIXSize3'
p58
sg16
I400
sg17
g13
sg18
g13
sg19
S'/usr/share/matplotlib/mpl-data/fonts/ttf/STIXSiz3Sym.ttf'
p59
sg21
g22
sbag7
(g8
g9
NtRp60
(dp61
g12
g13
sg14
S'STIXSize2'
p62
sg16
I400
sg17
g13
sg18
g13
sg19
S'/usr/share/matplotlib/mpl-data/fonts/ttf/STIXSiz2Sym.ttf'
p63
sg21
g22
sbag7
(g8
g9
NtRp64
(dp65
g12
g13
sg14
S'STIXGeneral'
p66
sg16
I700
sg17
g13
sg18
g13
sg19
S'/usr/share/matplotlib/mpl-data/fonts/ttf/STIXGeneralBol.ttf'
p67
sg21
g22
sbag7
(g8
g9
NtRp68
(dp69
g12
g13
sg14
S'STIXSize4'
p70
sg16
I700
sg17
g13
sg18
g13
sg19
S'/usr/share/matplotlib/mpl-data/fonts/ttf/STIXSiz4SymBol.ttf'
p71
sg21
g22
sbag7
(g8
g9
NtRp72
(dp73
g12
g13
sg14
S'STIXSize2'
p74
sg16
I700
sg17
g13
sg18
g13
sg19
S'/usr/share/matplotlib/mpl-data/fonts/ttf/STIXSiz2SymBol.ttf'
p75
sg21
g22
sbag7
(g8
g9
NtRp76
(dp77
g12
g13
sg14
S'cmsy10'
p78
sg16
I400
sg17
g13
sg18
g13
sg19
S'/usr/share/matplotlib/mpl-data/fonts/ttf/cmsy10.ttf'
p79
sg21
g22
sbag7
(g8
g9
NtRp80
(dp81
g12
g13
sg14
S'cmss10'
p82
sg16
I400
sg17
g13
sg18
g13
sg19
S'/usr/share/matplotlib/mpl-data/fonts/ttf/cmss10.ttf'
p83
sg21
g22
sbag7
(g8
g9
NtRp84
(dp85
g12
g13
sg14
S'STIXSize1'
p86
sg16
I700
sg17
g13
sg18
g13
sg19
S'/usr/share/matplotlib/mpl-data/fonts/ttf/STIXSiz1SymBol.ttf'
p87
sg21
g22
sbag7
(g8
g9
NtRp88
(dp89
g12
g29
sg14
S'STIXGeneral'
p90
sg16
I400
sg17
g13
sg18
g13
sg19
S'/usr/share/matplotlib/mpl-data/fonts/ttf/STIXGeneralItalic.ttf'
p91
sg21
g22
sbag7
(g8
g9
NtRp92
(dp93
g12
g13
sg14
S'cmr10'
p94
sg16
I400
sg17
g13
sg18
g13
sg19
S'/usr/share/matplotlib/mpl-data/fonts/ttf/cmr10.ttf'
p95
sg21
g22
sbag7
(g8
g9
NtRp96
(dp97
g12
g13
sg14
S'STIXSize4'
p98
sg16
I400
sg17
g13
sg18
g13
sg19
S'/usr/share/matplotlib/mpl-data/fonts/ttf/STIXSiz4Sym.ttf'
p99
sg21
g22
sbag7
(g8
g9
NtRp100
(dp101
g12
g13
sg14
S'STIXSize1'
p102
sg16
I400
sg17
g13
sg18
g13
sg19
S'/usr/share/matplotlib/mpl-data/fonts/ttf/STIXSiz1Sym.ttf'
p103
sg21
g22
sbag7
(g8
g9
NtRp104
(dp105
g12
g13
sg14
S'cmmi10'
p106
sg16
I400
sg17
g13
sg18
g13
sg19
S'/usr/share/matplotlib/mpl-data/fonts/ttf/cmmi10.ttf'
p107
sg21
g22
sbag7
(g8
g9
NtRp108
(dp109
g12
g13
sg14
S'STIXNonUnicode'
p110
sg16
I700
sg17
g13
sg18
g13
sg19
S'/usr/share/matplotlib/mpl-data/fonts/ttf/STIXNonUniBol.ttf'
p111
sg21
g22
sbag7
(g8
g9
NtRp112
(dp113
g12
g29
sg14
S'STIXGeneral'
p114
sg16
I700
sg17
g13
sg18
g13
sg19
S'/usr/share/matplotlib/mpl-data/fonts/ttf/STIXGeneralBolIta.ttf'
p115
sg21
g22
sbag7
(g8
g9
NtRp116
(dp117
g12
S'oblique'
p118
sg14
S'Purisa'
p119
sg16
I700
sg17
g13
sg18
g13
sg19
S'/usr/share/fonts/truetype/thai/Purisa-BoldOblique.ttf'
p120
sg21
g22
sbag7
(g8
g9
NtRp121
(dp122
g12
g13
sg14
S'mry_KacstQurn'
p123
sg16
I400
sg17
g13
sg18
g13
sg19
S'/usr/share/fonts/truetype/ttf-kacst/mry_KacstQurn.ttf'
p124
sg21
g22
sbag7
(g8
g9
NtRp125
(dp126
g12
g13
sg14
S'Mallige'
p127
sg16
I700
sg17
g13
sg18
g13
sg19
S'/usr/share/fonts/truetype/ttf-indic-fonts-core/Malige-b.ttf'
p128
sg21
g22
sbag7
(g8
g9
NtRp129
(dp130
g12
g118
sg14
S'Kinnari'
p131
sg16
I700
sg17
g13
sg18
g13
sg19
S'/usr/share/fonts/truetype/thai/Kinnari-BoldOblique.ttf'
p132
sg21
g22
sbag7
(g8
g9
NtRp133
(dp134
g12
g118
sg14
S'Tlwg Typo'
p135
sg16
I400
sg17
g13
sg18
g13
sg19
S'/usr/share/fonts/truetype/thai/TlwgTypo-Oblique.ttf'
p136
sg21
g22
sbag7
(g8
g9
NtRp137
(dp138
g12
g13
sg14
S'Liberation Sans'
p139
sg16
I700
sg17
g13
sg18
g13
sg19
S'/usr/share/fonts/truetype/ttf-liberation/LiberationSans-Bold.ttf'
p140
sg21
g22
sbag7
(g8
g9
NtRp141
(dp142
g12
g13
sg14
S'Umpush'
p143
sg16
I400
sg17
g13
sg18
g13
sg19
S'/usr/share/fonts/truetype/thai/Umpush.ttf'
p144
sg21
g22
sbag7
(g8
g9
NtRp145
(dp146
g12
g13
sg14
S'Times New Roman'
p147
sg16
I500
sg17
g13
sg18
g13
sg19
S'/usr/share/fonts/truetype/msttcorefonts/Times_New_Roman.ttf'
p148
sg21
g22
sbag7
(g8
g9
NtRp149
(dp150
g12
g118
sg14
S'Loma'
p151
sg16
I700
sg17
g13
sg18
g13
sg19
S'/usr/share/fonts/truetype/thai/Loma-BoldOblique.ttf'
p152
sg21
g22
sbag7
(g8
g9
NtRp153
(dp154
g12
g13
sg14
S'UnBatang'
p155
sg16
I700
sg17
g13
sg18
g13
sg19
S'/usr/share/fonts/truetype/unfonts/UnBatangBold.ttf'
p156
sg21
g22
sbag7
(g8
g9
NtRp157
(dp158
g12
g29
sg14
S'Verdana'
p159
sg16
I400
sg17
g13
sg18
g13
sg19
S'/usr/share/fonts/truetype/msttcorefonts/verdanai.ttf'
p160
sg21
g22
sbag7
(g8
g9
NtRp161
(dp162
g12
g13
sg14
S'FreeSerif'
p163
sg16
I400
sg17
g13
sg18
g13
sg19
S'/usr/share/fonts/truetype/freefont/FreeSerif.ttf'
p164
sg21
g22
sbag7
(g8
g9
NtRp165
(dp166
g12
g13
sg14
S'DejaVu Sans'
p167
sg16
I400
sg17
S'condensed'
p168
sg18
g13
sg19
S'/usr/share/fonts/truetype/ttf-dejavu/DejaVuSansCondensed.ttf'
p169
sg21
g22
sbag7
(g8
g9
NtRp170
(dp171
g12
g13
sg14
S'Liberation Mono'
p172
sg16
I700
sg17
g13
sg18
g13
sg19
S'/usr/share/fonts/truetype/ttf-liberation/LiberationMono-Bold.ttf'
p173
sg21
g22
sbag7
(g8
g9
NtRp174
(dp175
g12
g29
sg14
S'Verdana'
p176
sg16
I700
sg17
g13
sg18
g13
sg19
S'/usr/share/fonts/truetype/msttcorefonts/verdanaz.ttf'
p177
sg21
g22
sbag7
(g8
g9
NtRp178
(dp179
g12
g13
sg14
S'DejaVu Sans Mono'
p180
sg16
I400
sg17
g13
sg18
g13
sg19
S'/usr/share/fonts/truetype/ttf-dejavu/DejaVuSansMono.ttf'
p181
sg21
g22
sbag7
(g8
g9
NtRp182
(dp183
g12
g13
sg14
S'Lohit Punjabi'
p184
sg16
I400
sg17
g13
sg18
g13
sg19
S'/usr/share/fonts/truetype/ttf-punjabi-fonts/lohit_pa.ttf'
p185
sg21
g22
sbag7
(g8
g9
NtRp186
(dp187
g12
g13
sg14
S'Kinnari'
p188
sg16
I400
sg17
g13
sg18
g13
sg19
S'/usr/share/fonts/truetype/thai/Kinnari.ttf'
p189
sg21
g22
sbag7
(g8
g9
NtRp190
(dp191
g12
g13
sg14
S'Meera'
p192
sg16
I400
sg17
g13
sg18
g13
sg19
S'/usr/share/fonts/truetype/ttf-indic-fonts-core/Meera_04.ttf'
p193
sg21
g22
sbag7
(g8
g9
NtRp194
(dp195
g12
g118
sg14
S'Loma'
p196
sg16
I400
sg17
g13
sg18
g13
sg19
S'/usr/share/fonts/truetype/thai/Loma-Oblique.ttf'
p197
sg21
g22
sbag7
(g8
g9
NtRp198
(dp199
g12
g13
sg14
S'Liberation Serif'
p200
sg16
I400
sg17
g13
sg18
g13
sg19
S'/usr/share/fonts/truetype/ttf-liberation/LiberationSerif-Regular.ttf'
p201
sg21
g22
sbag7
(g8
g9
NtRp202
(dp203
g12
g13
sg14
S'Georgia'
p204
sg16
I700
sg17
g13
sg18
g13
sg19
S'/usr/share/fonts/truetype/msttcorefonts/Georgia_Bold.ttf'
p205
sg21
g22
sbag7
(g8
g9
NtRp206
(dp207
g12
g13
sg14
S'FreeSerif'
p208
sg16
I700
sg17
g13
sg18
g13
sg19
S'/usr/share/fonts/truetype/freefont/FreeSerifBold.ttf'
p209
sg21
g22
sbag7
(g8
g9
NtRp210
(dp211
g12
g118
sg14
S'Umpush'
p212
sg16
I700
sg17
g13
sg18
g13
sg19
S'/usr/share/fonts/truetype/thai/Umpush-BoldOblique.ttf'
p213
sg21
g22
sbag7
(g8
g9
NtRp214
(dp215
g12
g29
sg14
S'Liberation Mono'
p216
sg16
I400
sg17
g13
sg18
g13
sg19
S'/usr/share/fonts/truetype/ttf-liberation/LiberationMono-Italic.ttf'
p217
sg21
g22
sbag7
(g8
g9
NtRp218
(dp219
g12
g13
sg14
S'DejaVu Serif'
p220
sg16
I700
sg17
g13
sg18
g13
sg19
S'/usr/share/fonts/truetype/ttf-dejavu/DejaVuSerif-Bold.ttf'
p221
sg21
g22
sbag7
(g8
g9
NtRp222
(dp223
g12
g13
sg14
S'wasy10'
p224
sg16
I400
sg17
g13
sg18
g13
sg19
S'/usr/share/fonts/truetype/latex-xft-fonts/wasy10.ttf'
p225
sg21
g22
sbag7
(g8
g9
NtRp226
(dp227
g12
g13
sg14
S'Georgia'
p228
sg16
I700
sg17
g13
sg18
g13
sg19
S'/usr/share/fonts/truetype/msttcorefonts/georgiab.ttf'
p229
sg21
g22
sbag7
(g8
g9
NtRp230
(dp231
g12
g13
sg14
S'DejaVu Serif'
p232
sg16
I400
sg17
g13
sg18
g13
sg19
S'/usr/share/fonts/truetype/ttf-dejavu/DejaVuSerif.ttf'
p233
sg21
g22
sbag7
(g8
g9
NtRp234
(dp235
g12
g13
sg14
S'KacstOffice'
p236
sg16
I400
sg17
g13
sg18
g13
sg19
S'/usr/share/fonts/truetype/ttf-kacst/KacstOffice.ttf'
p237
sg21
g22
sbag7
(g8
g9
NtRp238
(dp239
g12
g118
sg14
S'FreeSans'
p240
sg16
I400
sg17
g13
sg18
g13
sg19
S'/usr/share/fonts/truetype/freefont/FreeSansOblique.ttf'
p241
sg21
g22
sbag7
(g8
g9
NtRp242
(dp243
g12
g13
sg14
S'Comic Sans MS'
p244
sg16
I700
sg17
g13
sg18
g13
sg19
S'/usr/share/fonts/truetype/msttcorefonts/Comic_Sans_MS_Bold.ttf'
p245
sg21
g22
sbag7
(g8
g9
NtRp246
(dp247
g12
g13
sg14
S'KacstOne'
p248
sg16
I400
sg17
g13
sg18
g13
sg19
S'/usr/share/fonts/truetype/ttf-kacst-one/KacstOne.ttf'
p249
sg21
g22
sbag7
(g8
g9
NtRp250
(dp251
g12
g13
sg14
S'TlwgMono'
p252
sg16
I700
sg17
g13
sg18
g13
sg19
S'/usr/share/fonts/truetype/thai/TlwgMono-Bold.ttf'
p253
sg21
g22
sbag7
(g8
g9
NtRp254
(dp255
g12
g13
sg14
S'Lohit Hindi'
p256
sg16
I400
sg17
g13
sg18
g13
sg19
S'/usr/share/fonts/truetype/ttf-indic-fonts-core/lohit_hi.ttf'
p257
sg21
g22
sbag7
(g8
g9
NtRp258
(dp259
g12
g13
sg14
S'Courier New'
p260
sg16
I700
sg17
g13
sg18
g13
sg19
S'/usr/share/fonts/truetype/msttcorefonts/Courier_New_Bold.ttf'
p261
sg21
g22
sbag7
(g8
g9
NtRp262
(dp263
g12
g29
sg14
S'Georgia'
p264
sg16
I700
sg17
g13
sg18
g13
sg19
S'/usr/share/fonts/truetype/msttcorefonts/Georgia_Bold_Italic.ttf'
p265
sg21
g22
sbag7
(g8
g9
NtRp266
(dp267
g12
g13
sg14
S'msbm10'
p268
sg16
I400
sg17
g13
sg18
g13
sg19
S'/usr/share/fonts/truetype/latex-xft-fonts/msbm10.ttf'
p269
sg21
g22
sbag7
(g8
g9
NtRp270
(dp271
g12
g118
sg14
S'DejaVu Sans'
p272
sg16
I400
sg17
g13
sg18
g13
sg19
S'/usr/share/fonts/truetype/ttf-dejavu/DejaVuSans-Oblique.ttf'
p273
sg21
g22
sbag7
(g8
g9
NtRp274
(dp275
g12
g13
sg14
S'UnDotum'
p276
sg16
I700
sg17
g13
sg18
g13
sg19
S'/usr/share/fonts/truetype/unfonts/UnDotumBold.ttf'
p277
sg21
g22
sbag7
(g8
g9
NtRp278
(dp279
g12
g13
sg14
S'Norasi'
p280
sg16
I400
sg17
g13
sg18
g13
sg19
S'/usr/share/fonts/truetype/thai/Norasi.ttf'
p281
sg21
g22
sbag7
(g8
g9
NtRp282
(dp283
g12
g13
sg14
S'TlwgMono'
p284
sg16
I400
sg17
g13
sg18
g13
sg19
S'/usr/share/fonts/truetype/thai/TlwgMono.ttf'
p285
sg21
g22
sbag7
(g8
g9
NtRp286
(dp287
g12
g29
sg14
S'Times New Roman'
p288
sg16
I700
sg17
g13
sg18
g13
sg19
S'/usr/share/fonts/truetype/msttcorefonts/Times_New_Roman_Bold_Italic.ttf'
p289
sg21
g22
sbag7
(g8
g9
NtRp290
(dp291
g12
g13
sg14
S'eufm10'
p292
sg16
I400
sg17
g13
sg18
g13
sg19
S'/usr/share/fonts/truetype/ttf-lyx/eufm10.ttf'
p293
sg21
g22
sbag7
(g8
g9
NtRp294
(dp295
g12
g118
sg14
S'DejaVu Sans'
p296
sg16
I700
sg17
g13
sg18
g13
sg19
S'/usr/share/fonts/truetype/ttf-dejavu/DejaVuSans-BoldOblique.ttf'
p297
sg21
g22
sbag7
(g8
g9
NtRp298
(dp299
g12
g29
sg14
S'Liberation Sans'
p300
sg16
I400
sg17
g13
sg18
g13
sg19
S'/usr/share/fonts/truetype/ttf-liberation/LiberationSans-Italic.ttf'
p301
sg21
g22
sbag7
(g8
g9
NtRp302
(dp303
g12
g13
sg14
S'Impact'
p304
sg16
I400
sg17
g13
sg18
g13
sg19
S'/usr/share/fonts/truetype/msttcorefonts/Impact.ttf'
p305
sg21
g22
sbag7
(g8
g9
NtRp306
(dp307
g12
g118
sg14
S'DejaVu Sans'
p308
sg16
I700
sg17
g168
sg18
g13
sg19
S'/usr/share/fonts/truetype/ttf-dejavu/DejaVuSansCondensed-BoldOblique.ttf'
p309
sg21
g22
sbag7
(g8
g9
NtRp310
(dp311
g12
g13
sg14
S'Georgia'
p312
sg16
I400
sg17
g13
sg18
g13
sg19
S'/usr/share/fonts/truetype/msttcorefonts/Georgia.ttf'
p313
sg21
g22
sbag7
(g8
g9
NtRp314
(dp315
g12
g13
sg14
S'DejaVu Sans'
p316
sg16
I700
sg17
g168
sg18
g13
sg19
S'/usr/share/fonts/truetype/ttf-dejavu/DejaVuSansCondensed-Bold.ttf'
p317
sg21
g22
sbag7
(g8
g9
NtRp318
(dp319
g12
g13
sg14
S'Sawasdee'
p320
sg16
I700
sg17
g13
sg18
g13
sg19
S'/usr/share/fonts/truetype/thai/Sawasdee-Bold.ttf'
p321
sg21
g22
sbag7
(g8
g9
NtRp322
(dp323
g12
g13
sg14
S'Garuda'
p324
sg16
I700
sg17
g13
sg18
g13
sg19
S'/usr/share/fonts/truetype/thai/Garuda-Bold.ttf'
p325
sg21
g22
sbag7
(g8
g9
NtRp326
(dp327
g12
g13
sg14
S'Kedage'
p328
sg16
I400
sg17
g13
sg18
g13
sg19
S'/usr/share/fonts/truetype/ttf-indic-fonts-core/Kedage-n.ttf'
p329
sg21
g22
sbag7
(g8
g9
NtRp330
(dp331
g12
g13
sg14
S'Andale Mono'
p332
sg16
I400
sg17
g13
sg18
g13
sg19
S'/usr/share/fonts/truetype/msttcorefonts/andalemo.ttf'
p333
sg21
g22
sbag7
(g8
g9
NtRp334
(dp335
g12
g13
sg14
S'Waree'
p336
sg16
I400
sg17
g13
sg18
g13
sg19
S'/usr/share/fonts/truetype/thai/Waree.ttf'
p337
sg21
g22
sbag7
(g8
g9
NtRp338
(dp339
g12
g29
sg14
S'Kinnari'
p340
sg16
I400
sg17
g13
sg18
g13
sg19
S'/usr/share/fonts/truetype/thai/Kinnari-Italic.ttf'
p341
sg21
g22
sbag7
(g8
g9
NtRp342
(dp343
g12
g29
sg14
S'Arial'
p344
sg16
I700
sg17
g13
sg18
g13
sg19
S'/usr/share/fonts/truetype/msttcorefonts/arialbi.ttf'
p345
sg21
g22
sbag7
(g8
g9
NtRp346
(dp347
g12
g13
sg14
S'Verdana'
p348
sg16
I400
sg17
g13
sg18
g13
sg19
S'/usr/share/fonts/truetype/msttcorefonts/Verdana.ttf'
p349
sg21
g22
sbag7
(g8
g9
NtRp350
(dp351
g12
g13
sg14
S'msam10'
p352
sg16
I400
sg17
g13
sg18
g13
sg19
S'/usr/share/fonts/truetype/latex-xft-fonts/msam10.ttf'
p353
sg21
g22
sbag7
(g8
g9
NtRp354
(dp355
g12
g13
sg14
S'DejaVu Sans Mono'
p356
sg16
I700
sg17
g13
sg18
g13
sg19
S'/usr/share/fonts/truetype/ttf-dejavu/DejaVuSansMono-Bold.ttf'
p357
sg21
g22
sbag7
(g8
g9
NtRp358
(dp359
g12
g13
sg14
S'KacstBook'
p360
sg16
I400
sg17
g13
sg18
g13
sg19
S'/usr/share/fonts/truetype/ttf-kacst/KacstBook.ttf'
p361
sg21
g22
sbag7
(g8
g9
NtRp362
(dp363
g12
g118
sg14
S'Sawasdee'
p364
sg16
I700
sg17
g13
sg18
g13
sg19
S'/usr/share/fonts/truetype/thai/Sawasdee-BoldOblique.ttf'
p365
sg21
g22
sbag7
(g8
g9
NtRp366
(dp367
g12
g13
sg14
S'Loma'
p368
sg16
I400
sg17
g13
sg18
g13
sg19
S'/usr/share/fonts/truetype/thai/Loma.ttf'
p369
sg21
g22
sbag7
(g8
g9
NtRp370
(dp371
g12
g118
sg14
S'Waree'
p372
sg16
I700
sg17
g13
sg18
g13
sg19
S'/usr/share/fonts/truetype/thai/Waree-BoldOblique.ttf'
p373
sg21
g22
sbag7
(g8
g9
NtRp374
(dp375
g12
g13
sg14
S'TlwgTypewriter'
p376
sg16
I400
sg17
g13
sg18
g13
sg19
S'/usr/share/fonts/truetype/thai/TlwgTypewriter.ttf'
p377
sg21
g22
sbag7
(g8
g9
NtRp378
(dp379
g12
g118
sg14
S'DejaVu Sans'
p380
sg16
I400
sg17
g168
sg18
g13
sg19
S'/usr/share/fonts/truetype/ttf-dejavu/DejaVuSansCondensed-Oblique.ttf'
p381
sg21
g22
sbag7
(g8
g9
NtRp382
(dp383
g12
g13
sg14
S'Courier New'
p384
sg16
I400
sg17
g13
sg18
g13
sg19
S'/usr/share/fonts/truetype/msttcorefonts/cour.ttf'
p385
sg21
g22
sbag7
(g8
g9
NtRp386
(dp387
g12
g13
sg14
S'ori1Uni'
p388
sg16
I500
sg17
g13
sg18
g13
sg19
S'/usr/share/fonts/truetype/ttf-indic-fonts-core/utkal.ttf'
p389
sg21
g22
sbag7
(g8
g9
NtRp390
(dp391
g12
g118
sg14
S'Garuda'
p392
sg16
I700
sg17
g13
sg18
g13
sg19
S'/usr/share/fonts/truetype/thai/Garuda-BoldOblique.ttf'
p393
sg21
g22
sbag7
(g8
g9
NtRp394
(dp395
g12
g29
sg14
S'DejaVu Serif'
p396
sg16
I700
sg17
g13
sg18
g13
sg19
S'/usr/share/fonts/truetype/ttf-dejavu/DejaVuSerif-BoldItalic.ttf'
p397
sg21
g22
sbag7
(g8
g9
NtRp398
(dp399
g12
g13
sg14
S'Courier New'
p400
sg16
I700
sg17
g13
sg18
g13
sg19
S'/usr/share/fonts/truetype/msttcorefonts/courbd.ttf'
p401
sg21
g22
sbag7
(g8
g9
NtRp402
(dp403
g12
g13
sg14
S'VL Gothic'
p404
sg16
I400
sg17
g13
sg18
g13
sg19
S'/usr/share/fonts/truetype/vlgothic/VL-Gothic-Regular.ttf'
p405
sg21
g22
sbag7
(g8
g9
NtRp406
(dp407
g12
g13
sg14
S'Trebuchet MS'
p408
sg16
I400
sg17
g13
sg18
g13
sg19
S'/usr/share/fonts/truetype/msttcorefonts/Trebuchet_MS.ttf'
p409
sg21
g22
sbag7
(g8
g9
NtRp410
(dp411
g12
g118
sg14
S'TlwgMono'
p412
sg16
I700
sg17
g13
sg18
g13
sg19
S'/usr/share/fonts/truetype/thai/TlwgMono-BoldOblique.ttf'
p413
sg21
g22
sbag7
(g8
g9
NtRp414
(dp415
g12
g118
sg14
S'Tlwg Typist'
p416
sg16
I400
sg17
g13
sg18
g13
sg19
S'/usr/share/fonts/truetype/thai/TlwgTypist-Oblique.ttf'
p417
sg21
g22
sbag7
(g8
g9
NtRp418
(dp419
g12
g13
sg14
S'VL PGothic'
p420
sg16
I400
sg17
g13
sg18
g13
sg19
S'/usr/share/fonts/truetype/vlgothic/VL-PGothic-Regular.ttf'
p421
sg21
g22
sbag7
(g8
g9
NtRp422
(dp423
g12
g13
sg14
S'Kedage'
p424
sg16
I700
sg17
g13
sg18
g13
sg19
S'/usr/share/fonts/truetype/ttf-indic-fonts-core/Kedage-b.ttf'
p425
sg21
g22
sbag7
(g8
g9
NtRp426
(dp427
g12
g13
sg14
S'DejaVu Serif'
p428
sg16
I700
sg17
g168
sg18
g13
sg19
S'/usr/share/fonts/truetype/ttf-dejavu/DejaVuSerifCondensed-Bold.ttf'
p429
sg21
g22
sbag7
(g8
g9
NtRp430
(dp431
g12
g13
sg14
S'Norasi'
p432
sg16
I700
sg17
g13
sg18
g13
sg19
S'/usr/share/fonts/truetype/thai/Norasi-Bold.ttf'
p433
sg21
g22
sbag7
(g8
g9
NtRp434
(dp435
g12
g29
sg14
S'Trebuchet MS'
p436
sg16
I400
sg17
g13
sg18
g13
sg19
S'/usr/share/fonts/truetype/msttcorefonts/Trebuchet_MS_Italic.ttf'
p437
sg21
g22
sbag7
(g8
g9
NtRp438
(dp439
g12
g13
sg14
S'Liberation Serif'
p440
sg16
I700
sg17
g13
sg18
g13
sg19
S'/usr/share/fonts/truetype/ttf-liberation/LiberationSerif-Bold.ttf'
p441
sg21
g22
sbag7
(g8
g9
NtRp442
(dp443
g12
g13
sg14
S'Courier New'
p444
sg16
I400
sg17
g13
sg18
g13
sg19
S'/usr/share/fonts/truetype/msttcorefonts/Courier_New.ttf'
p445
sg21
g22
sbag7
(g8
g9
NtRp446
(dp447
g12
g13
sg14
S'Comic Sans MS'
p448
sg16
I700
sg17
g13
sg18
g13
sg19
S'/usr/share/fonts/truetype/msttcorefonts/comicbd.ttf'
p449
sg21
g22
sbag7
(g8
g9
NtRp450
(dp451
g12
g13
sg14
S'Tlwg Typist'
p452
sg16
I700
sg17
g13
sg18
g13
sg19
S'/usr/share/fonts/truetype/thai/TlwgTypist-Bold.ttf'
p453
sg21
g22
sbag7
(g8
g9
NtRp454
(dp455
g12
g13
sg14
S'Arial'
p456
sg16
I400
sg17
g13
sg18
g13
sg19
S'/usr/share/fonts/truetype/msttcorefonts/Arial.ttf'
p457
sg21
g22
sbag7
(g8
g9
NtRp458
(dp459
g12
g29
sg14
S'Liberation Mono'
p460
sg16
I700
sg17
g13
sg18
g13
sg19
S'/usr/share/fonts/truetype/ttf-liberation/LiberationMono-BoldItalic.ttf'
p461
sg21
g22
sbag7
(g8
g9
NtRp462
(dp463
g12
g13
sg14
S'KacstDigital'
p464
sg16
I400
sg17
g13
sg18
g13
sg19
S'/usr/share/fonts/truetype/ttf-kacst/KacstDigital.ttf'
p465
sg21
g22
sbag7
(g8
g9
NtRp466
(dp467
g12
g29
sg14
S'Courier New'
p468
sg16
I700
sg17
g13
sg18
g13
sg19
S'/usr/share/fonts/truetype/msttcorefonts/courbi.ttf'
p469
sg21
g22
sbag7
(g8
g9
NtRp470
(dp471
g12
g13
sg14
S'Times New Roman'
p472
sg16
I500
sg17
g13
sg18
g13
sg19
S'/usr/share/fonts/truetype/msttcorefonts/times.ttf'
p473
sg21
g22
sbag7
(g8
g9
NtRp474
(dp475
g12
g13
sg14
S'KacstPoster'
p476
sg16
I400
sg17
g13
sg18
g13
sg19
S'/usr/share/fonts/truetype/ttf-kacst/KacstPoster.ttf'
p477
sg21
g22
sbag7
(g8
g9
NtRp478
(dp479
g12
g29
sg14
S'Verdana'
p480
sg16
I400
sg17
g13
sg18
g13
sg19
S'/usr/share/fonts/truetype/msttcorefonts/Verdana_Italic.ttf'
p481
sg21
g22
sbag7
(g8
g9
NtRp482
(dp483
g12
g29
sg14
S'Liberation Sans'
p484
sg16
I700
sg17
g13
sg18
g13
sg19
S'/usr/share/fonts/truetype/ttf-liberation/LiberationSans-BoldItalic.ttf'
p485
sg21
g22
sbag7
(g8
g9
NtRp486
(dp487
g12
g13
sg14
S'Mallige'
p488
sg16
I400
sg17
g13
sg18
g13
sg19
S'/usr/share/fonts/truetype/ttf-indic-fonts-core/Malige-n.ttf'
p489
sg21
g22
sbag7
(g8
g9
NtRp490
(dp491
g12
g13
sg14
S'Georgia'
p492
sg16
I400
sg17
g13
sg18
g13
sg19
S'/usr/share/fonts/truetype/msttcorefonts/georgia.ttf'
p493
sg21
g22
sbag7
(g8
g9
NtRp494
(dp495
g12
g13
sg14
S'KacstQurn'
p496
sg16
I400
sg17
g13
sg18
g13
sg19
S'/usr/share/fonts/truetype/ttf-kacst/KacstQurn.ttf'
p497
sg21
g22
sbag7
(g8
g9
NtRp498
(dp499
g12
g29
sg14
S'Liberation Serif'
p500
sg16
I400
sg17
g13
sg18
g13
sg19
S'/usr/share/fonts/truetype/ttf-liberation/LiberationSerif-Italic.ttf'
p501
sg21
g22
sbag7
(g8
g9
NtRp502
(dp503
g12
g13
sg14
S'Trebuchet MS'
p504
sg16
I400
sg17
g13
sg18
g13
sg19
S'/usr/share/fonts/truetype/msttcorefonts/trebuc.ttf'
p505
sg21
g22
sbag7
(g8
g9
NtRp506
(dp507
g12
g29
sg14
S'DejaVu Serif'
p508
sg16
I700
sg17
g168
sg18
g13
sg19
S'/usr/share/fonts/truetype/ttf-dejavu/DejaVuSerifCondensed-BoldItalic.ttf'
p509
sg21
g22
sbag7
(g8
g9
NtRp510
(dp511
g12
g13
sg14
S'FreeSans'
p512
sg16
I700
sg17
g13
sg18
g13
sg19
S'/usr/share/fonts/truetype/freefont/FreeSansBold.ttf'
p513
sg21
g22
sbag7
(g8
g9
NtRp514
(dp515
g12
g13
sg14
S'Loma'
p516
sg16
I700
sg17
g13
sg18
g13
sg19
S'/usr/share/fonts/truetype/thai/Loma-Bold.ttf'
p517
sg21
g22
sbag7
(g8
g9
NtRp518
(dp519
g12
g13
sg14
S'Tlwg Typo'
p520
sg16
I400
sg17
g13
sg18
g13
sg19
S'/usr/share/fonts/truetype/thai/TlwgTypo.ttf'
p521
sg21
g22
sbag7
(g8
g9
NtRp522
(dp523
g12
g13
sg14
S'Vemana2000'
p524
sg16
I400
sg17
g13
sg18
g13
sg19
S'/usr/share/fonts/truetype/ttf-indic-fonts-core/Vemana.ttf'
p525
sg21
g22
sbag7
(g8
g9
NtRp526
(dp527
g12
g13
sg14
S'Sawasdee'
p528
sg16
I400
sg17
g13
sg18
g13
sg19
S'/usr/share/fonts/truetype/thai/Sawasdee.ttf'
p529
sg21
g22
sbag7
(g8
g9
NtRp530
(dp531
g12
g13
sg14
S'Verdana'
p532
sg16
I400
sg17
g13
sg18
g13
sg19
S'/usr/share/fonts/truetype/msttcorefonts/verdana.ttf'
p533
sg21
g22
sbag7
(g8
g9
NtRp534
(dp535
g12
g13
sg14
S'KacstTitle'
p536
sg16
I400
sg17
g13
sg18
g13
sg19
S'/usr/share/fonts/truetype/ttf-kacst/KacstTitle.ttf'
p537
sg21
g22
sbag7
(g8
g9
NtRp538
(dp539
g12
g13
sg14
S'FreeMono'
p540
sg16
I700
sg17
g13
sg18
g13
sg19
S'/usr/share/fonts/truetype/freefont/FreeMonoBold.ttf'
p541
sg21
g22
sbag7
(g8
g9
NtRp542
(dp543
g12
g13
sg14
S'DejaVu Sans'
p544
sg16
I700
sg17
g13
sg18
g13
sg19
S'/usr/share/fonts/truetype/ttf-dejavu/DejaVuSans-Bold.ttf'
p545
sg21
g22
sbag7
(g8
g9
NtRp546
(dp547
g12
g13
sg14
S'KacstNaskh'
p548
sg16
I400
sg17
g13
sg18
g13
sg19
S'/usr/share/fonts/truetype/ttf-kacst/KacstNaskh.ttf'
p549
sg21
g22
sbag7
(g8
g9
NtRp550
(dp551
g12
g13
sg14
S'DejaVu Sans'
p552
sg16
I200
sg17
g13
sg18
g13
sg19
S'/usr/share/fonts/truetype/ttf-dejavu/DejaVuSans-ExtraLight.ttf'
p553
sg21
g22
sbag7
(g8
g9
NtRp554
(dp555
g12
g29
sg14
S'Trebuchet MS'
p556
sg16
I400
sg17
g13
sg18
g13
sg19
S'/usr/share/fonts/truetype/msttcorefonts/trebucit.ttf'
p557
sg21
g22
sbag7
(g8
g9
NtRp558
(dp559
g12
g13
sg14
S'Phetsarath OT'
p560
sg16
I400
sg17
g13
sg18
g13
sg19
S'/usr/share/fonts/truetype/ttf-lao/Phetsarath_OT.ttf'
p561
sg21
g22
sbag7
(g8
g9
NtRp562
(dp563
g12
g29
sg14
S'Georgia'
p564
sg16
I400
sg17
g13
sg18
g13
sg19
S'/usr/share/fonts/truetype/msttcorefonts/georgiai.ttf'
p565
sg21
g22
sbag7
(g8
g9
NtRp566
(dp567
g12
g13
sg14
S'Andale Mono'
p568
sg16
I400
sg17
g13
sg18
g13
sg19
S'/usr/share/fonts/truetype/msttcorefonts/Andale_Mono.ttf'
p569
sg21
g22
sbag7
(g8
g9
NtRp570
(dp571
g12
g29
sg14
S'Georgia'
p572
sg16
I400
sg17
g13
sg18
g13
sg19
S'/usr/share/fonts/truetype/msttcorefonts/Georgia_Italic.ttf'
p573
sg21
g22
sbag7
(g8
g9
NtRp574
(dp575
g12
g13
sg14
S'KacstDecorative'
p576
sg16
I400
sg17
g13
sg18
g13
sg19
S'/usr/share/fonts/truetype/ttf-kacst/KacstDecorative.ttf'
p577
sg21
g22
sbag7
(g8
g9
NtRp578
(dp579
g12
g118
sg14
S'TlwgTypewriter'
p580
sg16
I700
sg17
g13
sg18
g13
sg19
S'/usr/share/fonts/truetype/thai/TlwgTypewriter-BoldOblique.ttf'
p581
sg21
g22
sbag7
(g8
g9
NtRp582
(dp583
g12
g29
sg14
S'Courier New'
p584
sg16
I400
sg17
g13
sg18
g13
sg19
S'/usr/share/fonts/truetype/msttcorefonts/Courier_New_Italic.ttf'
p585
sg21
g22
sbag7
(g8
g9
NtRp586
(dp587
g12
g118
sg14
S'Umpush'
p588
sg16
I200
sg17
g13
sg18
g13
sg19
S'/usr/share/fonts/truetype/thai/Umpush-LightOblique.ttf'
p589
sg21
g22
sbag7
(g8
g9
NtRp590
(dp591
g12
g13
sg14
S'KacstLetter'
p592
sg16
I400
sg17
g13
sg18
g13
sg19
S'/usr/share/fonts/truetype/ttf-kacst/KacstLetter.ttf'
p593
sg21
g22
sbag7
(g8
g9
NtRp594
(dp595
g12
g13
sg14
S'Lohit Tamil'
p596
sg16
I400
sg17
g13
sg18
g13
sg19
S'/usr/share/fonts/truetype/ttf-indic-fonts-core/lohit_ta.ttf'
p597
sg21
g22
sbag7
(g8
g9
NtRp598
(dp599
g12
g29
sg14
S'Courier New'
p600
sg16
I400
sg17
g13
sg18
g13
sg19
S'/usr/share/fonts/truetype/msttcorefonts/couri.ttf'
p601
sg21
g22
sbag7
(g8
g9
NtRp602
(dp603
g12
g13
sg14
S'Rekha'
p604
sg16
I400
sg17
g13
sg18
g13
sg19
S'/usr/share/fonts/truetype/ttf-indic-fonts-core/Rekha.ttf'
p605
sg21
g22
sbag7
(g8
g9
NtRp606
(dp607
g12
g13
sg14
S'Kinnari'
p608
sg16
I700
sg17
g13
sg18
g13
sg19
S'/usr/share/fonts/truetype/thai/Kinnari-Bold.ttf'
p609
sg21
g22
sbag7
(g8
g9
NtRp610
(dp611
g12
g13
sg14
S'DejaVu Sans'
p612
sg16
I400
sg17
g13
sg18
g13
sg19
S'/usr/share/fonts/truetype/ttf-dejavu/DejaVuSans.ttf'
p613
sg21
g22
sbag7
(g8
g9
NtRp614
(dp615
g12
g13
sg14
S'esint10'
p616
sg16
I400
sg17
g13
sg18
g13
sg19
S'/usr/share/fonts/truetype/ttf-lyx/esint10.ttf'
p617
sg21
g22
sbag7
(g8
g9
NtRp618
(dp619
g12
g13
sg14
S'Arial Black'
p620
sg16
I900
sg17
g13
sg18
g13
sg19
S'/usr/share/fonts/truetype/msttcorefonts/ariblk.ttf'
p621
sg21
g22
sbag7
(g8
g9
NtRp622
(dp623
g12
g13
sg14
S'OpenSymbol'
p624
sg16
I400
sg17
g13
sg18
g13
sg19
S'/usr/share/fonts/truetype/openoffice/opens___.ttf'
p625
sg21
g22
sbag7
(g8
g9
NtRp626
(dp627
g12
g29
sg14
S'Verdana'
p628
sg16
I700
sg17
g13
sg18
g13
sg19
S'/usr/share/fonts/truetype/msttcorefonts/Verdana_Bold_Italic.ttf'
p629
sg21
g22
sbag7
(g8
g9
NtRp630
(dp631
g12
g13
sg14
S'UnBatang'
p632
sg16
I400
sg17
g13
sg18
g13
sg19
S'/usr/share/fonts/truetype/unfonts/UnBatang.ttf'
p633
sg21
g22
sbag7
(g8
g9
NtRp634
(dp635
g12
g13
sg14
S'gargi'
p636
sg16
I400
sg17
g13
sg18
g13
sg19
S'/usr/share/fonts/truetype/ttf-indic-fonts-core/gargi.ttf'
p637
sg21
g22
sbag7
(g8
g9
NtRp638
(dp639
g12
g13
sg14
S'kacstPen'
p640
sg16
I400
sg17
g13
sg18
g13
sg19
S'/usr/share/fonts/truetype/ttf-kacst/kacstPen.ttf'
p641
sg21
g22
sbag7
(g8
g9
NtRp642
(dp643
g12
g13
sg14
S'Khmer OS System'
p644
sg16
I400
sg17
g13
sg18
g13
sg19
S'/usr/share/fonts/truetype/ttf-khmeros-core/KhmerOSsys.ttf'
p645
sg21
g22
sbag7
(g8
g9
NtRp646
(dp647
g12
g29
sg14
S'DejaVu Serif'
p648
sg16
I400
sg17
g168
sg18
g13
sg19
S'/usr/share/fonts/truetype/ttf-dejavu/DejaVuSerifCondensed-Italic.ttf'
p649
sg21
g22
sbag7
(g8
g9
NtRp650
(dp651
g12
g13
sg14
S'Arial Black'
p652
sg16
I900
sg17
g13
sg18
g13
sg19
S'/usr/share/fonts/truetype/msttcorefonts/Arial_Black.ttf'
p653
sg21
g22
sbag7
(g8
g9
NtRp654
(dp655
g12
g13
sg14
S'Webdings'
p656
sg16
I400
sg17
g13
sg18
g13
sg19
S'/usr/share/fonts/truetype/msttcorefonts/Webdings.ttf'
p657
sg21
g22
sbag7
(g8
g9
NtRp658
(dp659
g12
g13
sg14
S'Mukti Narrow'
p660
sg16
I700
sg17
g13
sg18
g13
sg19
S'/usr/share/fonts/truetype/ttf-indic-fonts-core/MuktiNarrowBold.ttf'
p661
sg21
g22
sbag7
(g8
g9
NtRp662
(dp663
g12
g13
sg14
S'Verdana'
p664
sg16
I700
sg17
g13
sg18
g13
sg19
S'/usr/share/fonts/truetype/msttcorefonts/verdanab.ttf'
p665
sg21
g22
sbag7
(g8
g9
NtRp666
(dp667
g12
g29
sg14
S'Kinnari'
p668
sg16
I700
sg17
g13
sg18
g13
sg19
S'/usr/share/fonts/truetype/thai/Kinnari-BoldItalic.ttf'
p669
sg21
g22
sbag7
(g8
g9
NtRp670
(dp671
g12
g118
sg14
S'FreeSans'
p672
sg16
I700
sg17
g13
sg18
g13
sg19
S'/usr/share/fonts/truetype/freefont/FreeSansBoldOblique.ttf'
p673
sg21
g22
sbag7
(g8
g9
NtRp674
(dp675
g12
g13
sg14
S'Purisa'
p676
sg16
I400
sg17
g13
sg18
g13
sg19
S'/usr/share/fonts/truetype/thai/Purisa.ttf'
p677
sg21
g22
sbag7
(g8
g9
NtRp678
(dp679
g12
g118
sg14
S'TlwgMono'
p680
sg16
I400
sg17
g13
sg18
g13
sg19
S'/usr/share/fonts/truetype/thai/TlwgMono-Oblique.ttf'
p681
sg21
g22
sbag7
(g8
g9
NtRp682
(dp683
g12
g29
sg14
S'Arial'
p684
sg16
I400
sg17
g13
sg18
g13
sg19
S'/usr/share/fonts/truetype/msttcorefonts/Arial_Italic.ttf'
p685
sg21
g22
sbag7
(g8
g9
NtRp686
(dp687
g12
g118
sg14
S'FreeMono'
p688
sg16
I700
sg17
g13
sg18
g13
sg19
S'/usr/share/fonts/truetype/freefont/FreeMonoBoldOblique.ttf'
p689
sg21
g22
sbag7
(g8
g9
NtRp690
(dp691
g12
g13
sg14
S'Tlwg Typist'
p692
sg16
I400
sg17
g13
sg18
g13
sg19
S'/usr/share/fonts/truetype/thai/TlwgTypist.ttf'
p693
sg21
g22
sbag7
(g8
g9
NtRp694
(dp695
g12
g13
sg14
S'FreeSans'
p696
sg16
I400
sg17
g13
sg18
g13
sg19
S'/usr/share/fonts/truetype/freefont/FreeSans.ttf'
p697
sg21
g22
sbag7
(g8
g9
NtRp698
(dp699
g12
g118
sg14
S'Kinnari'
p700
sg16
I400
sg17
g13
sg18
g13
sg19
S'/usr/share/fonts/truetype/thai/Kinnari-Oblique.ttf'
p701
sg21
g22
sbag7
(g8
g9
NtRp702
(dp703
g12
g29
sg14
S'Arial'
p704
sg16
I400
sg17
g13
sg18
g13
sg19
S'/usr/share/fonts/truetype/msttcorefonts/ariali.ttf'
p705
sg21
g22
sbag7
(g8
g9
NtRp706
(dp707
g12
g29
sg14
S'FreeSerif'
p708
sg16
I700
sg17
g13
sg18
g13
sg19
S'/usr/share/fonts/truetype/freefont/FreeSerifBoldItalic.ttf'
p709
sg21
g22
sbag7
(g8
g9
NtRp710
(dp711
g12
g13
sg14
S'Lohit Bengali'
p712
sg16
I400
sg17
g13
sg18
g13
sg19
S'/usr/share/fonts/truetype/ttf-indic-fonts-core/lohit_bn.ttf'
p713
sg21
g22
sbag7
(g8
g9
NtRp714
(dp715
g12
g29
sg14
S'Trebuchet MS'
p716
sg16
I700
sg17
g13
sg18
g13
sg19
S'/usr/share/fonts/truetype/msttcorefonts/trebucbi.ttf'
p717
sg21
g22
sbag7
(g8
g9
NtRp718
(dp719
g12
g13
sg14
S'Mukti Narrow'
p720
sg16
I400
sg17
g13
sg18
g13
sg19
S'/usr/share/fonts/truetype/ttf-indic-fonts-core/MuktiNarrow.ttf'
p721
sg21
g22
sbag7
(g8
g9
NtRp722
(dp723
g12
g13
sg14
S'Waree'
p724
sg16
I700
sg17
g13
sg18
g13
sg19
S'/usr/share/fonts/truetype/thai/Waree-Bold.ttf'
p725
sg21
g22
sbag7
(g8
g9
NtRp726
(dp727
g12
g29
sg14
S'Times New Roman'
p728
sg16
I500
sg17
g13
sg18
g13
sg19
S'/usr/share/fonts/truetype/msttcorefonts/timesi.ttf'
p729
sg21
g22
sbag7
(g8
g9
NtRp730
(dp731
g12
g29
sg14
S'Times New Roman'
p732
sg16
I500
sg17
g13
sg18
g13
sg19
S'/usr/share/fonts/truetype/msttcorefonts/Times_New_Roman_Italic.ttf'
p733
sg21
g22
sbag7
(g8
g9
NtRp734
(dp735
g12
g29
sg14
S'Norasi'
p736
sg16
I700
sg17
g13
sg18
g13
sg19
S'/usr/share/fonts/truetype/thai/Norasi-BoldItalic.ttf'
p737
sg21
g22
sbag7
(g8
g9
NtRp738
(dp739
g12
g118
sg14
S'Norasi'
p740
sg16
I400
sg17
g13
sg18
g13
sg19
S'/usr/share/fonts/truetype/thai/Norasi-Oblique.ttf'
p741
sg21
g22
sbag7
(g8
g9
NtRp742
(dp743
g12
g13
sg14
S'Pothana2000'
p744
sg16
I400
sg17
g13
sg18
g13
sg19
S'/usr/share/fonts/truetype/ttf-indic-fonts-core/Pothana2000.ttf'
p745
sg21
g22
sbag7
(g8
g9
NtRp746
(dp747
g12
g29
sg14
S'Georgia'
p748
sg16
I700
sg17
g13
sg18
g13
sg19
S'/usr/share/fonts/truetype/msttcorefonts/georgiaz.ttf'
p749
sg21
g22
sbag7
(g8
g9
NtRp750
(dp751
g12
g29
sg14
S'Courier New'
p752
sg16
I700
sg17
g13
sg18
g13
sg19
S'/usr/share/fonts/truetype/msttcorefonts/Courier_New_Bold_Italic.ttf'
p753
sg21
g22
sbag7
(g8
g9
NtRp754
(dp755
g12
g13
sg14
S'Rachana'
p756
sg16
I400
sg17
g13
sg18
g13
sg19
S'/usr/share/fonts/truetype/ttf-indic-fonts-core/Rachana_04.ttf'
p757
sg21
g22
sbag7
(g8
g9
NtRp758
(dp759
g12
g13
sg14
S'Arial'
p760
sg16
I700
sg17
g13
sg18
g13
sg19
S'/usr/share/fonts/truetype/msttcorefonts/arialbd.ttf'
p761
sg21
g22
sbag7
(g8
g9
NtRp762
(dp763
g12
g13
sg14
S'Umpush'
p764
sg16
I700
sg17
g13
sg18
g13
sg19
S'/usr/share/fonts/truetype/thai/Umpush-Bold.ttf'
p765
sg21
g22
sbag7
(g8
g9
NtRp766
(dp767
g12
g13
sg14
S'Times New Roman'
p768
sg16
I700
sg17
g13
sg18
g13
sg19
S'/usr/share/fonts/truetype/msttcorefonts/timesbd.ttf'
p769
sg21
g22
sbag7
(g8
g9
NtRp770
(dp771
g12
g13
sg14
S'Trebuchet MS'
p772
sg16
I700
sg17
g13
sg18
g13
sg19
S'/usr/share/fonts/truetype/msttcorefonts/Trebuchet_MS_Bold.ttf'
p773
sg21
g22
sbag7
(g8
g9
NtRp774
(dp775
g12
g29
sg14
S'DejaVu Serif'
p776
sg16
I400
sg17
g13
sg18
g13
sg19
S'/usr/share/fonts/truetype/ttf-dejavu/DejaVuSerif-Italic.ttf'
p777
sg21
g22
sbag7
(g8
g9
NtRp778
(dp779
g12
g118
sg14
S'DejaVu Sans Mono'
p780
sg16
I700
sg17
g13
sg18
g13
sg19
S'/usr/share/fonts/truetype/ttf-dejavu/DejaVuSansMono-BoldOblique.ttf'
p781
sg21
g22
sbag7
(g8
g9
NtRp782
(dp783
g12
g13
sg14
S'Arial'
p784
sg16
I400
sg17
g13
sg18
g13
sg19
S'/usr/share/fonts/truetype/msttcorefonts/arial.ttf'
p785
sg21
g22
sbag7
(g8
g9
NtRp786
(dp787
g12
g118
sg14
S'FreeMono'
p788
sg16
I400
sg17
g13
sg18
g13
sg19
S'/usr/share/fonts/truetype/freefont/FreeMonoOblique.ttf'
p789
sg21
g22
sbag7
(g8
g9
NtRp790
(dp791
g12
g13
sg14
S'TlwgTypewriter'
p792
sg16
I700
sg17
g13
sg18
g13
sg19
S'/usr/share/fonts/truetype/thai/TlwgTypewriter-Bold.ttf'
p793
sg21
g22
sbag7
(g8
g9
NtRp794
(dp795
g12
g13
sg14
S'KacstFarsi'
p796
sg16
I400
sg17
g13
sg18
g13
sg19
S'/usr/share/fonts/truetype/ttf-kacst/KacstFarsi.ttf'
p797
sg21
g22
sbag7
(g8
g9
NtRp798
(dp799
g12
g13
sg14
S'Comic Sans MS'
p800
sg16
I400
sg17
g13
sg18
g13
sg19
S'/usr/share/fonts/truetype/msttcorefonts/comic.ttf'
p801
sg21
g22
sbag7
(g8
g9
NtRp802
(dp803
g12
g13
sg14
S'Umpush'
p804
sg16
I200
sg17
g13
sg18
g13
sg19
S'/usr/share/fonts/truetype/thai/Umpush-Light.ttf'
p805
sg21
g22
sbag7
(g8
g9
NtRp806
(dp807
g12
g118
sg14
S'Garuda'
p808
sg16
I400
sg17
g13
sg18
g13
sg19
S'/usr/share/fonts/truetype/thai/Garuda-Oblique.ttf'
p809
sg21
g22
sbag7
(g8
g9
NtRp810
(dp811
g12
g13
sg14
S'Webdings'
p812
sg16
I400
sg17
g13
sg18
g13
sg19
S'/usr/share/fonts/truetype/msttcorefonts/webdings.ttf'
p813
sg21
g22
sbag7
(g8
g9
NtRp814
(dp815
g12
g118
sg14
S'Tlwg Typo'
p816
sg16
I700
sg17
g13
sg18
g13
sg19
S'/usr/share/fonts/truetype/thai/TlwgTypo-BoldOblique.ttf'
p817
sg21
g22
sbag7
(g8
g9
NtRp818
(dp819
g12
g118
sg14
S'DejaVu Sans Mono'
p820
sg16
I400
sg17
g13
sg18
g13
sg19
S'/usr/share/fonts/truetype/ttf-dejavu/DejaVuSansMono-Oblique.ttf'
p821
sg21
g22
sbag7
(g8
g9
NtRp822
(dp823
g12
g13
sg14
S'Arial'
p824
sg16
I700
sg17
g13
sg18
g13
sg19
S'/usr/share/fonts/truetype/msttcorefonts/Arial_Bold.ttf'
p825
sg21
g22
sbag7
(g8
g9
NtRp826
(dp827
g12
g13
sg14
S'TakaoPGothic'
p828
sg16
I400
sg17
g13
sg18
g13
sg19
S'/usr/share/fonts/truetype/ttf-japanese-gothic.ttf'
p829
sg21
g22
sbag7
(g8
g9
NtRp830
(dp831
g12
g13
sg14
S'Liberation Mono'
p832
sg16
I400
sg17
g13
sg18
g13
sg19
S'/usr/share/fonts/truetype/ttf-liberation/LiberationMono-Regular.ttf'
p833
sg21
g22
sbag7
(g8
g9
NtRp834
(dp835
g12
g13
sg14
S'Purisa'
p836
sg16
I700
sg17
g13
sg18
g13
sg19
S'/usr/share/fonts/truetype/thai/Purisa-Bold.ttf'
p837
sg21
g22
sbag7
(g8
g9
NtRp838
(dp839
g12
g118
sg14
S'Umpush'
p840
sg16
I400
sg17
g13
sg18
g13
sg19
S'/usr/share/fonts/truetype/thai/Umpush-Oblique.ttf'
p841
sg21
g22
sbag7
(g8
g9
NtRp842
(dp843
g12
g29
sg14
S'Times New Roman'
p844
sg16
I700
sg17
g13
sg18
g13
sg19
S'/usr/share/fonts/truetype/msttcorefonts/timesbi.ttf'
p845
sg21
g22
sbag7
(g8
g9
NtRp846
(dp847
g12
g13
sg14
S'Comic Sans MS'
p848
sg16
I400
sg17
g13
sg18
g13
sg19
S'/usr/share/fonts/truetype/msttcorefonts/Comic_Sans_MS.ttf'
p849
sg21
g22
sbag7
(g8
g9
NtRp850
(dp851
g12
g13
sg14
S'TakaoPGothic'
p852
sg16
I400
sg17
g13
sg18
g13
sg19
S'/usr/share/fonts/truetype/takao/TakaoPGothic.ttf'
p853
sg21
g22
sbag7
(g8
g9
NtRp854
(dp855
g12
g29
sg14
S'Liberation Serif'
p856
sg16
I700
sg17
g13
sg18
g13
sg19
S'/usr/share/fonts/truetype/ttf-liberation/LiberationSerif-BoldItalic.ttf'
p857
sg21
g22
sbag7
(g8
g9
NtRp858
(dp859
g12
g118
sg14
S'Sawasdee'
p860
sg16
I400
sg17
g13
sg18
g13
sg19
S'/usr/share/fonts/truetype/thai/Sawasdee-Oblique.ttf'
p861
sg21
g22
sbag7
(g8
g9
NtRp862
(dp863
g12
g29
sg14
S'Arial'
p864
sg16
I700
sg17
g13
sg18
g13
sg19
S'/usr/share/fonts/truetype/msttcorefonts/Arial_Bold_Italic.ttf'
p865
sg21
g22
sbag7
(g8
g9
NtRp866
(dp867
g12
g13
sg14
S'DejaVu Serif'
p868
sg16
I400
sg17
g168
sg18
g13
sg19
S'/usr/share/fonts/truetype/ttf-dejavu/DejaVuSerifCondensed.ttf'
p869
sg21
g22
sbag7
(g8
g9
NtRp870
(dp871
g12
g118
sg14
S'Purisa'
p872
sg16
I400
sg17
g13
sg18
g13
sg19
S'/usr/share/fonts/truetype/thai/Purisa-Oblique.ttf'
p873
sg21
g22
sbag7
(g8
g9
NtRp874
(dp875
g12
g13
sg14
S'Saab'
p876
sg16
I400
sg17
g13
sg18
g13
sg19
S'/usr/share/fonts/truetype/ttf-punjabi-fonts/Saab.ttf'
p877
sg21
g22
sbag7
(g8
g9
NtRp878
(dp879
g12
g13
sg14
S'Lohit Gujarati'
p880
sg16
I400
sg17
g13
sg18
g13
sg19
S'/usr/share/fonts/truetype/ttf-indic-fonts-core/lohit_gu.ttf'
p881
sg21
g22
sbag7
(g8
g9
NtRp882
(dp883
g12
g13
sg14
S'Impact'
p884
sg16
I400
sg17
g13
sg18
g13
sg19
S'/usr/share/fonts/truetype/msttcorefonts/impact.ttf'
p885
sg21
g22
sbag7
(g8
g9
NtRp886
(dp887
g12
g118
sg14
S'Tlwg Typist'
p888
sg16
I700
sg17
g13
sg18
g13
sg19
S'/usr/share/fonts/truetype/thai/TlwgTypist-BoldOblique.ttf'
p889
sg21
g22
sbag7
(g8
g9
NtRp890
(dp891
g12
g13
sg14
S'KacstScreen'
p892
sg16
I400
sg17
g13
sg18
g13
sg19
S'/usr/share/fonts/truetype/ttf-kacst/KacstScreen.ttf'
p893
sg21
g22
sbag7
(g8
g9
NtRp894
(dp895
g12
g13
sg14
S'Khmer OS'
p896
sg16
I400
sg17
g13
sg18
g13
sg19
S'/usr/share/fonts/truetype/ttf-khmeros-core/KhmerOS.ttf'
p897
sg21
g22
sbag7
(g8
g9
NtRp898
(dp899
g12
g13
sg14
S'Verdana'
p900
sg16
I700
sg17
g13
sg18
g13
sg19
S'/usr/share/fonts/truetype/msttcorefonts/Verdana_Bold.ttf'
p901
sg21
g22
sbag7
(g8
g9
NtRp902
(dp903
g12
g13
sg14
S'Tlwg Typo'
p904
sg16
I700
sg17
g13
sg18
g13
sg19
S'/usr/share/fonts/truetype/thai/TlwgTypo-Bold.ttf'
p905
sg21
g22
sbag7
(g8
g9
NtRp906
(dp907
g12
g29
sg14
S'Trebuchet MS'
p908
sg16
I700
sg17
g13
sg18
g13
sg19
S'/usr/share/fonts/truetype/msttcorefonts/Trebuchet_MS_Bold_Italic.ttf'
p909
sg21
g22
sbag7
(g8
g9
NtRp910
(dp911
g12
g13
sg14
S'KacstTitleL'
p912
sg16
I400
sg17
g13
sg18
g13
sg19
S'/usr/share/fonts/truetype/ttf-kacst/KacstTitleL.ttf'
p913
sg21
g22
sbag7
(g8
g9
NtRp914
(dp915
g12
g118
sg14
S'TlwgTypewriter'
p916
sg16
I400
sg17
g13
sg18
g13
sg19
S'/usr/share/fonts/truetype/thai/TlwgTypewriter-Oblique.ttf'
p917
sg21
g22
sbag7
(g8
g9
NtRp918
(dp919
g12
g13
sg14
S'UnDotum'
p920
sg16
I400
sg17
g13
sg18
g13
sg19
S'/usr/share/fonts/truetype/unfonts/UnDotum.ttf'
p921
sg21
g22
sbag7
(g8
g9
NtRp922
(dp923
g12
g118
sg14
S'Waree'
p924
sg16
I400
sg17
g13
sg18
g13
sg19
S'/usr/share/fonts/truetype/thai/Waree-Oblique.ttf'
p925
sg21
g22
sbag7
(g8
g9
NtRp926
(dp927
g12
g13
sg14
S'Garuda'
p928
sg16
I400
sg17
g13
sg18
g13
sg19
S'/usr/share/fonts/truetype/thai/Garuda.ttf'
p929
sg21
g22
sbag7
(g8
g9
NtRp930
(dp931
g12
g13
sg14
S'FreeMono'
p932
sg16
I400
sg17
g13
sg18
g13
sg19
S'/usr/share/fonts/truetype/freefont/FreeMono.ttf'
p933
sg21
g22
sbag7
(g8
g9
NtRp934
(dp935
g12
g13
sg14
S'Trebuchet MS'
p936
sg16
I700
sg17
g13
sg18
g13
sg19
S'/usr/share/fonts/truetype/msttcorefonts/trebucbd.ttf'
p937
sg21
g22
sbag7
(g8
g9
NtRp938
(dp939
g12
g118
sg14
S'Norasi'
p940
sg16
I700
sg17
g13
sg18
g13
sg19
S'/usr/share/fonts/truetype/thai/Norasi-BoldOblique.ttf'
p941
sg21
g22
sbag7
(g8
g9
NtRp942
(dp943
g12
g13
sg14
S'KacstArt'
p944
sg16
I400
sg17
g13
sg18
g13
sg19
S'/usr/share/fonts/truetype/ttf-kacst/KacstArt.ttf'
p945
sg21
g22
sbag7
(g8
g9
NtRp946
(dp947
g12
g29
sg14
S'FreeSerif'
p948
sg16
I400
sg17
g13
sg18
g13
sg19
S'/usr/share/fonts/truetype/freefont/FreeSerifItalic.ttf'
p949
sg21
g22
sbag7
(g8
g9
NtRp950
(dp951
g12
g29
sg14
S'Norasi'
p952
sg16
I400
sg17
g13
sg18
g13
sg19
S'/usr/share/fonts/truetype/thai/Norasi-Italic.ttf'
p953
sg21
g22
sbag7
(g8
g9
NtRp954
(dp955
g12
g13
sg14
S'Liberation Sans'
p956
sg16
I400
sg17
g13
sg18
g13
sg19
S'/usr/share/fonts/truetype/ttf-liberation/LiberationSans-Regular.ttf'
p957
sg21
g22
sbag7
(g8
g9
NtRp958
(dp959
g12
g13
sg14
S'Times New Roman'
p960
sg16
I700
sg17
g13
sg18
g13
sg19
S'/usr/share/fonts/truetype/msttcorefonts/Times_New_Roman_Bold.ttf'
p961
sg21
g22
sbasS'ttffiles'
p962
(lp963
S'/usr/share/matplotlib/mpl-data/fonts/ttf/cmb10.ttf'
p964
aS'/usr/share/matplotlib/mpl-data/fonts/ttf/cmex10.ttf'
p965
aS'/usr/share/matplotlib/mpl-data/fonts/ttf/STIXNonUniIta.ttf'
p966
aS'/usr/share/matplotlib/mpl-data/fonts/ttf/STIXNonUni.ttf'
p967
aS'/usr/share/matplotlib/mpl-data/fonts/ttf/STIXSiz5Sym.ttf'
p968
aS'/usr/share/matplotlib/mpl-data/fonts/ttf/cmtt10.ttf'
p969
aS'/usr/share/matplotlib/mpl-data/fonts/ttf/STIXGeneral.ttf'
p970
aS'/usr/share/matplotlib/mpl-data/fonts/ttf/STIXNonUniBolIta.ttf'
p971
aS'/usr/share/matplotlib/mpl-data/fonts/ttf/STIXSiz3SymBol.ttf'
p972
aS'/usr/share/matplotlib/mpl-data/fonts/ttf/STIXSiz3Sym.ttf'
p973
aS'/usr/share/matplotlib/mpl-data/fonts/ttf/STIXSiz2Sym.ttf'
p974
aS'/usr/share/matplotlib/mpl-data/fonts/ttf/STIXGeneralBol.ttf'
p975
aS'/usr/share/matplotlib/mpl-data/fonts/ttf/STIXSiz4SymBol.ttf'
p976
aS'/usr/share/matplotlib/mpl-data/fonts/ttf/STIXSiz2SymBol.ttf'
p977
aS'/usr/share/matplotlib/mpl-data/fonts/ttf/cmsy10.ttf'
p978
aS'/usr/share/matplotlib/mpl-data/fonts/ttf/cmss10.ttf'
p979
aS'/usr/share/matplotlib/mpl-data/fonts/ttf/STIXSiz1SymBol.ttf'
p980
aS'/usr/share/matplotlib/mpl-data/fonts/ttf/STIXGeneralItalic.ttf'
p981
aS'/usr/share/matplotlib/mpl-data/fonts/ttf/cmr10.ttf'
p982
aS'/usr/share/matplotlib/mpl-data/fonts/ttf/STIXSiz4Sym.ttf'
p983
aS'/usr/share/matplotlib/mpl-data/fonts/ttf/STIXSiz1Sym.ttf'
p984
aS'/usr/share/matplotlib/mpl-data/fonts/ttf/cmmi10.ttf'
p985
aS'/usr/share/matplotlib/mpl-data/fonts/ttf/STIXNonUniBol.ttf'
p986
aS'/usr/share/matplotlib/mpl-data/fonts/ttf/STIXGeneralBolIta.ttf'
p987
aS'/usr/share/fonts/truetype/thai/Purisa-BoldOblique.ttf'
p988
aS'/usr/share/fonts/truetype/latex-xft-fonts/cmsy10.ttf'
p989
aS'/usr/share/fonts/truetype/ttf-kacst/mry_KacstQurn.ttf'
p990
aS'/usr/share/fonts/truetype/ttf-indic-fonts-core/Malige-b.ttf'
p991
aS'/usr/share/fonts/truetype/thai/Kinnari-BoldOblique.ttf'
p992
aS'/usr/share/fonts/truetype/thai/TlwgTypo-Oblique.ttf'
p993
aS'/usr/share/fonts/truetype/ttf-liberation/LiberationSans-Bold.ttf'
p994
aS'/usr/share/fonts/truetype/thai/Umpush.ttf'
p995
aS'/usr/share/fonts/truetype/msttcorefonts/Times_New_Roman.ttf'
p996
aS'/usr/share/fonts/truetype/thai/Loma-BoldOblique.ttf'
p997
aS'/usr/share/fonts/truetype/unfonts/UnBatangBold.ttf'
p998
aS'/usr/share/fonts/truetype/msttcorefonts/verdanai.ttf'
p999
aS'/usr/share/fonts/truetype/freefont/FreeSerif.ttf'
p1000
aS'/usr/share/fonts/truetype/ttf-dejavu/DejaVuSansCondensed.ttf'
p1001
aS'/usr/share/fonts/truetype/ttf-liberation/LiberationMono-Bold.ttf'
p1002
aS'/usr/share/fonts/truetype/msttcorefonts/verdanaz.ttf'
p1003
aS'/usr/share/fonts/truetype/ttf-dejavu/DejaVuSansMono.ttf'
p1004
aS'/usr/share/fonts/truetype/ttf-punjabi-fonts/lohit_pa.ttf'
p1005
aS'/usr/share/fonts/truetype/thai/Kinnari.ttf'
p1006
aS'/usr/share/fonts/truetype/ttf-indic-fonts-core/Meera_04.ttf'
p1007
aS'/usr/share/fonts/truetype/thai/Loma-Oblique.ttf'
p1008
aS'/usr/share/fonts/truetype/ttf-liberation/LiberationSerif-Regular.ttf'
p1009
aS'/usr/share/fonts/truetype/msttcorefonts/Georgia_Bold.ttf'
p1010
aS'/usr/share/fonts/truetype/freefont/FreeSerifBold.ttf'
p1011
aS'/usr/share/fonts/truetype/thai/Umpush-BoldOblique.ttf'
p1012
aS'/usr/share/fonts/truetype/ttf-liberation/LiberationMono-Italic.ttf'
p1013
aS'/usr/share/fonts/truetype/ttf-dejavu/DejaVuSerif-Bold.ttf'
p1014
aS'/usr/share/fonts/truetype/latex-xft-fonts/wasy10.ttf'
p1015
aS'/usr/share/fonts/truetype/msttcorefonts/georgiab.ttf'
p1016
aS'/usr/share/fonts/truetype/ttf-dejavu/DejaVuSerif.ttf'
p1017
aS'/usr/share/fonts/truetype/ttf-kacst/KacstOffice.ttf'
p1018
aS'/usr/share/fonts/truetype/freefont/FreeSansOblique.ttf'
p1019
aS'/usr/share/fonts/truetype/msttcorefonts/Comic_Sans_MS_Bold.ttf'
p1020
aS'/usr/share/fonts/truetype/ttf-kacst-one/KacstOne.ttf'
p1021
aS'/usr/share/fonts/truetype/thai/TlwgMono-Bold.ttf'
p1022
aS'/usr/share/fonts/truetype/ttf-indic-fonts-core/lohit_hi.ttf'
p1023
aS'/usr/share/fonts/truetype/msttcorefonts/Courier_New_Bold.ttf'
p1024
aS'/usr/share/fonts/truetype/msttcorefonts/Georgia_Bold_Italic.ttf'
p1025
aS'/usr/share/fonts/truetype/latex-xft-fonts/msbm10.ttf'
p1026
aS'/usr/share/fonts/truetype/ttf-dejavu/DejaVuSans-Oblique.ttf'
p1027
aS'/usr/share/fonts/truetype/unfonts/UnDotumBold.ttf'
p1028
aS'/usr/share/fonts/truetype/thai/Norasi.ttf'
p1029
aS'/usr/share/fonts/truetype/thai/TlwgMono.ttf'
p1030
aS'/usr/share/fonts/truetype/msttcorefonts/Times_New_Roman_Bold_Italic.ttf'
p1031
aS'/usr/share/fonts/truetype/ttf-lyx/eufm10.ttf'
p1032
aS'/usr/share/fonts/truetype/ttf-dejavu/DejaVuSans-BoldOblique.ttf'
p1033
aS'/usr/share/fonts/truetype/ttf-liberation/LiberationSans-Italic.ttf'
p1034
aS'/usr/share/fonts/truetype/ttf-lyx/wasy10.ttf'
p1035
aS'/usr/share/fonts/truetype/msttcorefonts/Impact.ttf'
p1036
aS'/usr/share/fonts/truetype/ttf-dejavu/DejaVuSansCondensed-BoldOblique.ttf'
p1037
aS'/usr/share/fonts/truetype/msttcorefonts/Georgia.ttf'
p1038
aS'/usr/share/fonts/truetype/ttf-dejavu/DejaVuSansCondensed-Bold.ttf'
p1039
aS'/usr/share/fonts/truetype/thai/Sawasdee-Bold.ttf'
p1040
aS'/usr/share/fonts/truetype/ttf-lyx/msbm10.ttf'
p1041
aS'/usr/share/fonts/truetype/thai/Garuda-Bold.ttf'
p1042
aS'/usr/share/fonts/truetype/ttf-indic-fonts-core/Kedage-n.ttf'
p1043
aS'/usr/share/fonts/truetype/msttcorefonts/andalemo.ttf'
p1044
aS'/usr/share/fonts/truetype/thai/Waree.ttf'
p1045
aS'/usr/share/fonts/truetype/thai/Kinnari-Italic.ttf'
p1046
aS'/usr/share/fonts/truetype/msttcorefonts/arialbi.ttf'
p1047
aS'/usr/share/fonts/truetype/msttcorefonts/Verdana.ttf'
p1048
aS'/usr/share/fonts/truetype/latex-xft-fonts/msam10.ttf'
p1049
aS'/usr/share/fonts/truetype/ttf-dejavu/DejaVuSansMono-Bold.ttf'
p1050
aS'/usr/share/fonts/truetype/ttf-kacst/KacstBook.ttf'
p1051
aS'/usr/share/fonts/truetype/thai/Sawasdee-BoldOblique.ttf'
p1052
aS'/usr/share/fonts/truetype/thai/Loma.ttf'
p1053
aS'/usr/share/fonts/truetype/thai/Waree-BoldOblique.ttf'
p1054
aS'/usr/share/fonts/truetype/thai/TlwgTypewriter.ttf'
p1055
aS'/usr/share/fonts/truetype/ttf-dejavu/DejaVuSansCondensed-Oblique.ttf'
p1056
aS'/usr/share/fonts/truetype/msttcorefonts/cour.ttf'
p1057
aS'/usr/share/fonts/truetype/ttf-indic-fonts-core/utkal.ttf'
p1058
aS'/usr/share/fonts/truetype/thai/Garuda-BoldOblique.ttf'
p1059
aS'/usr/share/fonts/truetype/ttf-dejavu/DejaVuSerif-BoldItalic.ttf'
p1060
aS'/usr/share/fonts/truetype/msttcorefonts/courbd.ttf'
p1061
aS'/usr/share/fonts/truetype/vlgothic/VL-Gothic-Regular.ttf'
p1062
aS'/usr/share/fonts/truetype/msttcorefonts/Trebuchet_MS.ttf'
p1063
aS'/usr/share/fonts/truetype/thai/TlwgMono-BoldOblique.ttf'
p1064
aS'/usr/share/fonts/truetype/thai/TlwgTypist-Oblique.ttf'
p1065
aS'/usr/share/fonts/truetype/vlgothic/VL-PGothic-Regular.ttf'
p1066
aS'/usr/share/fonts/truetype/ttf-indic-fonts-core/Kedage-b.ttf'
p1067
aS'/usr/share/fonts/truetype/ttf-dejavu/DejaVuSerifCondensed-Bold.ttf'
p1068
aS'/usr/share/fonts/truetype/thai/Norasi-Bold.ttf'
p1069
aS'/usr/share/fonts/truetype/msttcorefonts/Trebuchet_MS_Italic.ttf'
p1070
aS'/usr/share/fonts/truetype/ttf-liberation/LiberationSerif-Bold.ttf'
p1071
aS'/usr/share/fonts/truetype/msttcorefonts/Courier_New.ttf'
p1072
aS'/usr/share/fonts/truetype/msttcorefonts/comicbd.ttf'
p1073
aS'/usr/share/fonts/truetype/thai/TlwgTypist-Bold.ttf'
p1074
aS'/usr/share/fonts/truetype/msttcorefonts/Arial.ttf'
p1075
aS'/usr/share/fonts/truetype/ttf-liberation/LiberationMono-BoldItalic.ttf'
p1076
aS'/usr/share/fonts/truetype/latex-xft-fonts/cmmi10.ttf'
p1077
aS'/usr/share/fonts/truetype/ttf-kacst/KacstDigital.ttf'
p1078
aS'/usr/share/fonts/truetype/msttcorefonts/courbi.ttf'
p1079
aS'/usr/share/fonts/truetype/msttcorefonts/times.ttf'
p1080
aS'/usr/share/fonts/truetype/ttf-kacst/KacstPoster.ttf'
p1081
aS'/usr/share/fonts/truetype/msttcorefonts/Verdana_Italic.ttf'
p1082
aS'/usr/share/fonts/truetype/ttf-liberation/LiberationSans-BoldItalic.ttf'
p1083
aS'/usr/share/fonts/truetype/ttf-indic-fonts-core/Malige-n.ttf'
p1084
aS'/usr/share/fonts/truetype/msttcorefonts/georgia.ttf'
p1085
aS'/usr/share/fonts/truetype/ttf-kacst/KacstQurn.ttf'
p1086
aS'/usr/share/fonts/truetype/ttf-liberation/LiberationSerif-Italic.ttf'
p1087
aS'/usr/share/fonts/truetype/msttcorefonts/trebuc.ttf'
p1088
aS'/usr/share/fonts/truetype/ttf-dejavu/DejaVuSerifCondensed-BoldItalic.ttf'
p1089
aS'/usr/share/fonts/truetype/freefont/FreeSansBold.ttf'
p1090
aS'/usr/share/fonts/truetype/thai/Loma-Bold.ttf'
p1091
aS'/usr/share/fonts/truetype/thai/TlwgTypo.ttf'
p1092
aS'/usr/share/fonts/truetype/ttf-indic-fonts-core/Vemana.ttf'
p1093
aS'/usr/share/fonts/truetype/thai/Sawasdee.ttf'
p1094
aS'/usr/share/fonts/truetype/msttcorefonts/verdana.ttf'
p1095
aS'/usr/share/fonts/truetype/ttf-kacst/KacstTitle.ttf'
p1096
aS'/usr/share/fonts/truetype/freefont/FreeMonoBold.ttf'
p1097
aS'/usr/share/fonts/truetype/ttf-dejavu/DejaVuSans-Bold.ttf'
p1098
aS'/usr/share/fonts/truetype/ttf-kacst/KacstNaskh.ttf'
p1099
aS'/usr/share/fonts/truetype/ttf-dejavu/DejaVuSans-ExtraLight.ttf'
p1100
aS'/usr/share/fonts/truetype/msttcorefonts/trebucit.ttf'
p1101
aS'/usr/share/fonts/truetype/ttf-lao/Phetsarath_OT.ttf'
p1102
aS'/usr/share/fonts/truetype/msttcorefonts/georgiai.ttf'
p1103
aS'/usr/share/fonts/truetype/msttcorefonts/Andale_Mono.ttf'
p1104
aS'/usr/share/fonts/truetype/msttcorefonts/Georgia_Italic.ttf'
p1105
aS'/usr/share/fonts/truetype/ttf-kacst/KacstDecorative.ttf'
p1106
aS'/usr/share/fonts/truetype/thai/TlwgTypewriter-BoldOblique.ttf'
p1107
aS'/usr/share/fonts/truetype/ttf-lyx/cmmi10.ttf'
p1108
aS'/usr/share/fonts/truetype/msttcorefonts/Courier_New_Italic.ttf'
p1109
aS'/usr/share/fonts/truetype/thai/Umpush-LightOblique.ttf'
p1110
aS'/usr/share/fonts/truetype/ttf-kacst/KacstLetter.ttf'
p1111
aS'/usr/share/fonts/truetype/ttf-indic-fonts-core/lohit_ta.ttf'
p1112
aS'/usr/share/fonts/truetype/msttcorefonts/couri.ttf'
p1113
aS'/usr/share/fonts/truetype/ttf-indic-fonts-core/Rekha.ttf'
p1114
aS'/usr/share/fonts/truetype/thai/Kinnari-Bold.ttf'
p1115
aS'/usr/share/fonts/truetype/ttf-dejavu/DejaVuSans.ttf'
p1116
aS'/usr/share/fonts/truetype/ttf-lyx/esint10.ttf'
p1117
aS'/usr/share/fonts/truetype/msttcorefonts/ariblk.ttf'
p1118
aS'/usr/share/fonts/truetype/openoffice/opens___.ttf'
p1119
aS'/usr/share/fonts/truetype/msttcorefonts/Verdana_Bold_Italic.ttf'
p1120
aS'/usr/share/fonts/truetype/unfonts/UnBatang.ttf'
p1121
aS'/usr/share/fonts/truetype/ttf-indic-fonts-core/gargi.ttf'
p1122
aS'/usr/share/fonts/truetype/ttf-kacst/kacstPen.ttf'
p1123
aS'/usr/share/fonts/truetype/ttf-khmeros-core/KhmerOSsys.ttf'
p1124
aS'/usr/share/fonts/truetype/ttf-dejavu/DejaVuSerifCondensed-Italic.ttf'
p1125
aS'/usr/share/fonts/truetype/msttcorefonts/Arial_Black.ttf'
p1126
aS'/usr/share/fonts/truetype/msttcorefonts/Webdings.ttf'
p1127
aS'/usr/share/fonts/truetype/ttf-indic-fonts-core/MuktiNarrowBold.ttf'
p1128
aS'/usr/share/fonts/truetype/msttcorefonts/verdanab.ttf'
p1129
aS'/usr/share/fonts/truetype/thai/Kinnari-BoldItalic.ttf'
p1130
aS'/usr/share/fonts/truetype/freefont/FreeSansBoldOblique.ttf'
p1131
aS'/usr/share/fonts/truetype/latex-xft-fonts/cmr10.ttf'
p1132
aS'/usr/share/fonts/truetype/thai/Purisa.ttf'
p1133
aS'/usr/share/fonts/truetype/thai/TlwgMono-Oblique.ttf'
p1134
aS'/usr/share/fonts/truetype/msttcorefonts/Arial_Italic.ttf'
p1135
aS'/usr/share/fonts/truetype/freefont/FreeMonoBoldOblique.ttf'
p1136
aS'/usr/share/fonts/truetype/thai/TlwgTypist.ttf'
p1137
aS'/usr/share/fonts/truetype/freefont/FreeSans.ttf'
p1138
aS'/usr/share/fonts/truetype/thai/Kinnari-Oblique.ttf'
p1139
aS'/usr/share/fonts/truetype/ttf-lyx/cmr10.ttf'
p1140
aS'/usr/share/fonts/truetype/latex-xft-fonts/cmex10.ttf'
p1141
aS'/usr/share/fonts/truetype/msttcorefonts/ariali.ttf'
p1142
aS'/usr/share/fonts/truetype/freefont/FreeSerifBoldItalic.ttf'
p1143
aS'/usr/share/fonts/truetype/ttf-indic-fonts-core/lohit_bn.ttf'
p1144
aS'/usr/share/fonts/truetype/msttcorefonts/trebucbi.ttf'
p1145
aS'/usr/share/fonts/truetype/ttf-indic-fonts-core/MuktiNarrow.ttf'
p1146
aS'/usr/share/fonts/truetype/ttf-lyx/msam10.ttf'
p1147
aS'/usr/share/fonts/truetype/thai/Waree-Bold.ttf'
p1148
aS'/usr/share/fonts/truetype/msttcorefonts/timesi.ttf'
p1149
aS'/usr/share/fonts/truetype/msttcorefonts/Times_New_Roman_Italic.ttf'
p1150
aS'/usr/share/fonts/truetype/thai/Norasi-BoldItalic.ttf'
p1151
aS'/usr/share/fonts/truetype/thai/Norasi-Oblique.ttf'
p1152
aS'/usr/share/fonts/truetype/ttf-lyx/cmsy10.ttf'
p1153
aS'/usr/share/fonts/truetype/ttf-indic-fonts-core/Pothana2000.ttf'
p1154
aS'/usr/share/fonts/truetype/msttcorefonts/georgiaz.ttf'
p1155
aS'/usr/share/fonts/truetype/msttcorefonts/Courier_New_Bold_Italic.ttf'
p1156
aS'/usr/share/fonts/truetype/ttf-indic-fonts-core/Rachana_04.ttf'
p1157
aS'/usr/share/fonts/truetype/msttcorefonts/arialbd.ttf'
p1158
aS'/usr/share/fonts/truetype/thai/Umpush-Bold.ttf'
p1159
aS'/usr/share/fonts/truetype/msttcorefonts/timesbd.ttf'
p1160
aS'/usr/share/fonts/truetype/msttcorefonts/Trebuchet_MS_Bold.ttf'
p1161
aS'/usr/share/fonts/truetype/ttf-dejavu/DejaVuSerif-Italic.ttf'
p1162
aS'/usr/share/fonts/truetype/ttf-dejavu/DejaVuSansMono-BoldOblique.ttf'
p1163
aS'/usr/share/fonts/truetype/msttcorefonts/arial.ttf'
p1164
aS'/usr/share/fonts/truetype/freefont/FreeMonoOblique.ttf'
p1165
aS'/usr/share/fonts/truetype/thai/TlwgTypewriter-Bold.ttf'
p1166
aS'/usr/share/fonts/truetype/ttf-kacst/KacstFarsi.ttf'
p1167
aS'/usr/share/fonts/truetype/msttcorefonts/comic.ttf'
p1168
aS'/usr/share/fonts/truetype/thai/Umpush-Light.ttf'
p1169
aS'/usr/share/fonts/truetype/thai/Garuda-Oblique.ttf'
p1170
aS'/usr/share/fonts/truetype/msttcorefonts/webdings.ttf'
p1171
aS'/usr/share/fonts/truetype/thai/TlwgTypo-BoldOblique.ttf'
p1172
aS'/usr/share/fonts/truetype/ttf-dejavu/DejaVuSansMono-Oblique.ttf'
p1173
aS'/usr/share/fonts/truetype/msttcorefonts/Arial_Bold.ttf'
p1174
aS'/usr/share/fonts/truetype/ttf-japanese-gothic.ttf'
p1175
aS'/usr/share/fonts/truetype/ttf-liberation/LiberationMono-Regular.ttf'
p1176
aS'/usr/share/fonts/truetype/thai/Purisa-Bold.ttf'
p1177
aS'/usr/share/fonts/truetype/thai/Umpush-Oblique.ttf'
p1178
aS'/usr/share/fonts/truetype/msttcorefonts/timesbi.ttf'
p1179
aS'/usr/share/fonts/truetype/msttcorefonts/Comic_Sans_MS.ttf'
p1180
aS'/usr/share/fonts/truetype/takao/TakaoPGothic.ttf'
p1181
aS'/usr/share/fonts/truetype/ttf-liberation/LiberationSerif-BoldItalic.ttf'
p1182
aS'/usr/share/fonts/truetype/thai/Sawasdee-Oblique.ttf'
p1183
aS'/usr/share/fonts/truetype/msttcorefonts/Arial_Bold_Italic.ttf'
p1184
aS'/usr/share/fonts/truetype/ttf-dejavu/DejaVuSerifCondensed.ttf'
p1185
aS'/usr/share/fonts/truetype/thai/Purisa-Oblique.ttf'
p1186
aS'/usr/share/fonts/truetype/ttf-punjabi-fonts/Saab.ttf'
p1187
aS'/usr/share/fonts/truetype/ttf-indic-fonts-core/lohit_gu.ttf'
p1188
aS'/usr/share/fonts/truetype/msttcorefonts/impact.ttf'
p1189
aS'/usr/share/fonts/truetype/thai/TlwgTypist-BoldOblique.ttf'
p1190
aS'/usr/share/fonts/truetype/ttf-kacst/KacstScreen.ttf'
p1191
aS'/usr/share/fonts/truetype/ttf-khmeros-core/KhmerOS.ttf'
p1192
aS'/usr/share/fonts/truetype/msttcorefonts/Verdana_Bold.ttf'
p1193
aS'/usr/share/fonts/truetype/thai/TlwgTypo-Bold.ttf'
p1194
aS'/usr/share/fonts/truetype/msttcorefonts/Trebuchet_MS_Bold_Italic.ttf'
p1195
aS'/usr/share/fonts/truetype/ttf-kacst/KacstTitleL.ttf'
p1196
aS'/usr/share/fonts/truetype/thai/TlwgTypewriter-Oblique.ttf'
p1197
aS'/usr/share/fonts/truetype/unfonts/UnDotum.ttf'
p1198
aS'/usr/share/fonts/truetype/thai/Waree-Oblique.ttf'
p1199
aS'/usr/share/fonts/truetype/thai/Garuda.ttf'
p1200
aS'/usr/share/fonts/truetype/freefont/FreeMono.ttf'
p1201
aS'/usr/share/fonts/truetype/msttcorefonts/trebucbd.ttf'
p1202
aS'/usr/share/fonts/truetype/thai/Norasi-BoldOblique.ttf'
p1203
aS'/usr/share/fonts/truetype/ttf-kacst/KacstArt.ttf'
p1204
aS'/usr/share/fonts/truetype/freefont/FreeSerifItalic.ttf'
p1205
aS'/usr/share/fonts/truetype/thai/Norasi-Italic.ttf'
p1206
aS'/usr/share/fonts/truetype/ttf-liberation/LiberationSans-Regular.ttf'
p1207
aS'/usr/share/fonts/truetype/msttcorefonts/Times_New_Roman_Bold.ttf'
p1208
aS'/usr/share/fonts/truetype/ttf-lyx/cmex10.ttf'
p1209
asS'_FontManager__default_weight'
p1210
g13
sS'ttf_lookup_cache'
p1211
(dp1212
sS'default_size'
p1213
NsS'defaultFont'
p1214
g964
sS'afmfiles'
p1215
(lp1216
S'/usr/share/matplotlib/mpl-data/fonts/afm/phvl8a.afm'
p1217
aS'/usr/share/matplotlib/mpl-data/fonts/afm/pzcmi8a.afm'
p1218
aS'/usr/share/matplotlib/mpl-data/fonts/afm/pplb8a.afm'
p1219
aS'/usr/share/matplotlib/mpl-data/fonts/afm/putbi8a.afm'
p1220
aS'/usr/share/matplotlib/mpl-data/fonts/afm/phvro8an.afm'
p1221
aS'/usr/share/matplotlib/mpl-data/fonts/afm/pbkd8a.afm'
p1222
aS'/usr/share/matplotlib/mpl-data/fonts/afm/pncri8a.afm'
p1223
aS'/usr/share/matplotlib/mpl-data/fonts/afm/pcrb8a.afm'
p1224
aS'/usr/share/matplotlib/mpl-data/fonts/afm/pagdo8a.afm'
p1225
aS'/usr/share/matplotlib/mpl-data/fonts/afm/pcrr8a.afm'
p1226
aS'/usr/share/matplotlib/mpl-data/fonts/afm/pncb8a.afm'
p1227
aS'/usr/share/matplotlib/mpl-data/fonts/afm/pncbi8a.afm'
p1228
aS'/usr/share/matplotlib/mpl-data/fonts/afm/cmex10.afm'
p1229
aS'/usr/share/matplotlib/mpl-data/fonts/afm/cmtt10.afm'
p1230
aS'/usr/share/matplotlib/mpl-data/fonts/afm/phvr8an.afm'
p1231
aS'/usr/share/matplotlib/mpl-data/fonts/afm/phvro8a.afm'
p1232
aS'/usr/share/matplotlib/mpl-data/fonts/afm/ptmr8a.afm'
p1233
aS'/usr/share/matplotlib/mpl-data/fonts/afm/pplbi8a.afm'
p1234
aS'/usr/share/matplotlib/mpl-data/fonts/afm/cmsy10.afm'
p1235
aS'/usr/share/matplotlib/mpl-data/fonts/afm/pagk8a.afm'
p1236
aS'/usr/share/matplotlib/mpl-data/fonts/afm/putb8a.afm'
p1237
aS'/usr/share/matplotlib/mpl-data/fonts/afm/cmmi10.afm'
p1238
aS'/usr/share/matplotlib/mpl-data/fonts/afm/pagko8a.afm'
p1239
aS'/usr/share/matplotlib/mpl-data/fonts/afm/phvbo8an.afm'
p1240
aS'/usr/share/matplotlib/mpl-data/fonts/afm/phvbo8a.afm'
p1241
aS'/usr/share/matplotlib/mpl-data/fonts/afm/cmr10.afm'
p1242
aS'/usr/share/matplotlib/mpl-data/fonts/afm/psyr.afm'
p1243
aS'/usr/share/matplotlib/mpl-data/fonts/afm/phvlo8a.afm'
p1244
aS'/usr/share/matplotlib/mpl-data/fonts/afm/phvb8a.afm'
p1245
aS'/usr/share/matplotlib/mpl-data/fonts/afm/pzdr.afm'
p1246
aS'/usr/share/matplotlib/mpl-data/fonts/afm/ptmri8a.afm'
p1247
aS'/usr/share/matplotlib/mpl-data/fonts/afm/pcrbo8a.afm'
p1248
aS'/usr/share/matplotlib/mpl-data/fonts/afm/pplr8a.afm'
p1249
aS'/usr/share/matplotlib/mpl-data/fonts/afm/pbkl8a.afm'
p1250
aS'/usr/share/matplotlib/mpl-data/fonts/afm/pcrro8a.afm'
p1251
aS'/usr/share/matplotlib/mpl-data/fonts/afm/ptmb8a.afm'
p1252
aS'/usr/share/matplotlib/mpl-data/fonts/afm/putri8a.afm'
p1253
aS'/usr/share/matplotlib/mpl-data/fonts/afm/pplri8a.afm'
p1254
aS'/usr/share/matplotlib/mpl-data/fonts/afm/ptmbi8a.afm'
p1255
aS'/usr/share/matplotlib/mpl-data/fonts/afm/pbkli8a.afm'
p1256
aS'/usr/share/matplotlib/mpl-data/fonts/afm/putr8a.afm'
p1257
aS'/usr/share/matplotlib/mpl-data/fonts/afm/pagd8a.afm'
p1258
aS'/usr/share/matplotlib/mpl-data/fonts/afm/pncr8a.afm'
p1259
aS'/usr/share/matplotlib/mpl-data/fonts/afm/pbkdi8a.afm'
p1260
aS'/usr/share/matplotlib/mpl-data/fonts/afm/phvr8a.afm'
p1261
aS'/usr/share/matplotlib/mpl-data/fonts/afm/phvb8an.afm'
p1262
aS'/usr/share/fonts/type1/gsfonts/b018015l.afm'
p1263
aS'/usr/share/fonts/X11/Type1/lmtt10.afm'
p1264
aS'/usr/share/fonts/type1/gsfonts/n019003l.afm'
p1265
aS'/usr/share/fonts/type1/gsfonts/c059016l.afm'
p1266
aS'/usr/share/fonts/type1/gsfonts/c059033l.afm'
p1267
aS'/usr/share/fonts/X11/Type1/lmbx10.afm'
p1268
aS'/usr/share/fonts/type1/gsfonts/a010033l.afm'
p1269
aS'/usr/share/fonts/X11/Type1/lmssdo10.afm'
p1270
aS'/usr/share/fonts/X11/Type1/lmssqbx8.afm'
p1271
aS'/usr/share/fonts/X11/Type1/lmssqo8.afm'
p1272
aS'/usr/share/fonts/type1/gsfonts/n019064l.afm'
p1273
aS'/usr/share/fonts/X11/Type1/lmb10.afm'
p1274
aS'/usr/share/fonts/type1/gsfonts/p052024l.afm'
p1275
aS'/usr/share/fonts/X11/Type1/lmssq8.afm'
p1276
aS'/usr/share/fonts/X11/Type1/lmvtko10.afm'
p1277
aS'/usr/share/fonts/X11/Type1/lmbxo10.afm'
p1278
aS'/usr/share/fonts/X11/Type1/c0648bt_.afm'
p1279
aS'/usr/share/fonts/type1/gsfonts/z003034l.afm'
p1280
aS'/usr/share/fonts/X11/Type1/lmtcsc10.afm'
p1281
aS'/usr/share/fonts/X11/Type1/lmcsco10.afm'
p1282
aS'/usr/share/fonts/type1/mathml/Symbol.afm'
p1283
aS'/usr/share/fonts/type1/gsfonts/a010015l.afm'
p1284
aS'/usr/share/fonts/X11/Type1/lmtlc10.afm'
p1285
aS'/usr/share/fonts/type1/gsfonts/n019043l.afm'
p1286
aS'/usr/share/fonts/type1/gsfonts/n022024l.afm'
p1287
aS'/usr/share/fonts/X11/Type1/c0633bt_.afm'
p1288
aS'/usr/share/fonts/X11/Type1/lmtk10.afm'
p1289
aS'/usr/share/fonts/type1/gsfonts/n019044l.afm'
p1290
aS'/usr/share/fonts/X11/Type1/lmdunh10.afm'
p1291
aS'/usr/share/fonts/type1/gsfonts/d050000l.afm'
p1292
aS'/usr/share/fonts/X11/Type1/lmss10.afm'
p1293
aS'/usr/share/fonts/type1/gsfonts/b018012l.afm'
p1294
aS'/usr/share/fonts/X11/Type1/lmvtt10.afm'
p1295
aS'/usr/share/fonts/type1/gsfonts/b018032l.afm'
p1296
aS'/usr/share/fonts/X11/Type1/lmro10.afm'
p1297
aS'/usr/share/fonts/type1/gsfonts/p052023l.afm'
p1298
aS'/usr/share/fonts/X11/Type1/lmduno10.afm'
p1299
aS'/usr/share/fonts/type1/gsfonts/n021024l.afm'
p1300
aS'/usr/share/fonts/X11/Type1/lmbxi10.afm'
p1301
aS'/usr/share/fonts/X11/Type1/c0582bt_.afm'
p1302
aS'/usr/share/fonts/type1/gsfonts/p052004l.afm'
p1303
aS'/usr/share/fonts/type1/gsfonts/c059036l.afm'
p1304
aS'/usr/share/fonts/type1/gsfonts/n022004l.afm'
p1305
aS'/usr/share/fonts/X11/Type1/c0583bt_.afm'
p1306
aS'/usr/share/fonts/X11/Type1/lmtcso10.afm'
p1307
aS'/usr/share/fonts/X11/Type1/lmtti10.afm'
p1308
aS'/usr/share/fonts/X11/Type1/lmssbo10.afm'
p1309
aS'/usr/share/fonts/type1/gsfonts/a010035l.afm'
p1310
aS'/usr/share/fonts/X11/Type1/lmcsc10.afm'
p1311
aS'/usr/share/fonts/type1/gsfonts/n019023l.afm'
p1312
aS'/usr/share/fonts/X11/Type1/lmtko10.afm'
p1313
aS'/usr/share/fonts/type1/gsfonts/n019063l.afm'
p1314
aS'/usr/share/fonts/X11/Type1/c0611bt_.afm'
p1315
aS'/usr/share/fonts/X11/Type1/lmbo10.afm'
p1316
aS'/usr/share/fonts/type1/gsfonts/n022023l.afm'
p1317
aS'/usr/share/fonts/X11/Type1/lmri10.afm'
p1318
aS'/usr/share/fonts/X11/Type1/Symbol.afm'
p1319
aS'/usr/share/fonts/X11/Type1/lmssqbo8.afm'
p1320
aS'/usr/share/fonts/type1/gsfonts/p052003l.afm'
p1321
aS'/usr/share/fonts/X11/Type1/lmr10.afm'
p1322
aS'/usr/share/fonts/X11/Type1/c0649bt_.afm'
p1323
aS'/usr/share/fonts/type1/gsfonts/a010013l.afm'
p1324
aS'/usr/share/fonts/X11/Type1/lmvtto10.afm'
p1325
aS'/usr/share/fonts/X11/Type1/lmssdc10.afm'
p1326
aS'/usr/share/fonts/X11/Type1/lmssbx10.afm'
p1327
aS'/usr/share/fonts/type1/gsfonts/n019024l.afm'
p1328
aS'/usr/share/fonts/X11/Type1/lmvtk10.afm'
p1329
aS'/usr/share/fonts/type1/gsfonts/b018035l.afm'
p1330
aS'/usr/share/fonts/X11/Type1/lmtto10.afm'
p1331
aS'/usr/share/fonts/type1/gsfonts/s050000l.afm'
p1332
aS'/usr/share/fonts/X11/Type1/lmvtlo10.afm'
p1333
aS'/usr/share/fonts/type1/gsfonts/c059013l.afm'
p1334
aS'/usr/share/fonts/type1/gsfonts/n021023l.afm'
p1335
aS'/usr/share/fonts/type1/gsfonts/n021004l.afm'
p1336
aS'/usr/share/fonts/X11/Type1/lmtlo10.afm'
p1337
aS'/usr/share/fonts/type1/gsfonts/n022003l.afm'
p1338
aS'/usr/share/fonts/X11/Type1/lmvtl10.afm'
p1339
aS'/usr/share/fonts/X11/Type1/lmtl10.afm'
p1340
aS'/usr/share/fonts/X11/Type1/lmsso10.afm'
p1341
aS'/usr/share/fonts/type1/gsfonts/n019004l.afm'
p1342
aS'/usr/share/fonts/X11/Type1/lmu10.afm'
p1343
aS'/usr/share/fonts/type1/gsfonts/n021003l.afm'
p1344
aS'/usr/share/fonts/X11/Type1/lmtlco10.afm'
p1345
aS'/usr/share/fonts/X11/Type1/c0632bt_.afm'
p1346
aS'/usr/share/fonts/X11/Type1/c0419bt_.afm'
p1347
asS'afmlist'
p1348
(lp1349
g7
(g8
g9
NtRp1350
(dp1351
g12
g13
sg14
S'Helvetica'
p1352
sg16
I200
sg17
g13
sg18
g13
sg19
g1217
sg21
g22
sbag7
(g8
g9
NtRp1353
(dp1354
g12
g29
sg14
S'ITC Zapf Chancery'
p1355
sg16
I500
sg17
g13
sg18
g13
sg19
g1218
sg21
g22
sbag7
(g8
g9
NtRp1356
(dp1357
g12
g13
sg14
S'Palatino'
p1358
sg16
I700
sg17
g13
sg18
g13
sg19
g1219
sg21
g22
sbag7
(g8
g9
NtRp1359
(dp1360
g12
g29
sg14
S'Utopia'
p1361
sg16
I700
sg17
g13
sg18
g13
sg19
g1220
sg21
g22
sbag7
(g8
g9
NtRp1362
(dp1363
g12
g29
sg14
S'Helvetica'
p1364
sg16
I500
sg17
g13
sg18
g13
sg19
g1221
sg21
g22
sbag7
(g8
g9
NtRp1365
(dp1366
g12
g13
sg14
S'ITC Bookman'
p1367
sg16
I600
sg17
g13
sg18
g13
sg19
g1222
sg21
g22
sbag7
(g8
g9
NtRp1368
(dp1369
g12
g29
sg14
S'New Century Schoolbook'
p1370
sg16
I500
sg17
g13
sg18
g13
sg19
g1223
sg21
g22
sbag7
(g8
g9
NtRp1371
(dp1372
g12
g13
sg14
S'Courier'
p1373
sg16
I700
sg17
g13
sg18
g13
sg19
g1224
sg21
g22
sbag7
(g8
g9
NtRp1374
(dp1375
g12
g29
sg14
S'ITC Avant Garde Gothic'
p1376
sg16
I600
sg17
g13
sg18
g13
sg19
g1225
sg21
g22
sbag7
(g8
g9
NtRp1377
(dp1378
g12
g13
sg14
S'Courier'
p1379
sg16
I500
sg17
g13
sg18
g13
sg19
g1226
sg21
g22
sbag7
(g8
g9
NtRp1380
(dp1381
g12
g13
sg14
S'New Century Schoolbook'
p1382
sg16
I700
sg17
g13
sg18
g13
sg19
g1227
sg21
g22
sbag7
(g8
g9
NtRp1383
(dp1384
g12
g29
sg14
S'New Century Schoolbook'
p1385
sg16
I700
sg17
g13
sg18
g13
sg19
g1228
sg21
g22
sbag7
(g8
g9
NtRp1386
(dp1387
g12
g13
sg14
S'Computer Modern'
p1388
sg16
I500
sg17
g13
sg18
g13
sg19
g1229
sg21
g22
sbag7
(g8
g9
NtRp1389
(dp1390
g12
g13
sg14
S'Computer Modern'
p1391
sg16
I500
sg17
g13
sg18
g13
sg19
g1230
sg21
g22
sbag7
(g8
g9
NtRp1392
(dp1393
g12
g13
sg14
S'Helvetica'
p1394
sg16
I500
sg17
g13
sg18
g13
sg19
g1231
sg21
g22
sbag7
(g8
g9
NtRp1395
(dp1396
g12
g29
sg14
S'Helvetica'
p1397
sg16
I500
sg17
g13
sg18
g13
sg19
g1232
sg21
g22
sbag7
(g8
g9
NtRp1398
(dp1399
g12
g13
sg14
S'Times'
p1400
sg16
I500
sg17
g13
sg18
g13
sg19
g1233
sg21
g22
sbag7
(g8
g9
NtRp1401
(dp1402
g12
g29
sg14
S'Palatino'
p1403
sg16
I700
sg17
g13
sg18
g13
sg19
g1234
sg21
g22
sbag7
(g8
g9
NtRp1404
(dp1405
g12
g29
sg14
S'Computer Modern'
p1406
sg16
I500
sg17
g13
sg18
g13
sg19
g1235
sg21
g22
sbag7
(g8
g9
NtRp1407
(dp1408
g12
g13
sg14
S'ITC Avant Garde Gothic'
p1409
sg16
I400
sg17
g13
sg18
g13
sg19
g1236
sg21
g22
sbag7
(g8
g9
NtRp1410
(dp1411
g12
g13
sg14
S'Utopia'
p1412
sg16
I700
sg17
g13
sg18
g13
sg19
g1237
sg21
g22
sbag7
(g8
g9
NtRp1413
(dp1414
g12
g29
sg14
S'Computer Modern'
p1415
sg16
I500
sg17
g13
sg18
g13
sg19
g1238
sg21
g22
sbag7
(g8
g9
NtRp1416
(dp1417
g12
g29
sg14
S'ITC Avant Garde Gothic'
p1418
sg16
I400
sg17
g13
sg18
g13
sg19
g1239
sg21
g22
sbag7
(g8
g9
NtRp1419
(dp1420
g12
g29
sg14
S'Helvetica'
p1421
sg16
I700
sg17
g13
sg18
g13
sg19
g1240
sg21
g22
sbag7
(g8
g9
NtRp1422
(dp1423
g12
g29
sg14
S'Helvetica'
p1424
sg16
I700
sg17
g13
sg18
g13
sg19
g1241
sg21
g22
sbag7
(g8
g9
NtRp1425
(dp1426
g12
g13
sg14
S'Computer Modern'
p1427
sg16
I500
sg17
g13
sg18
g13
sg19
g1242
sg21
g22
sbag7
(g8
g9
NtRp1428
(dp1429
g12
g13
sg14
S'Symbol'
p1430
sg16
I500
sg17
g13
sg18
g13
sg19
g1243
sg21
g22
sbag7
(g8
g9
NtRp1431
(dp1432
g12
g29
sg14
S'Helvetica'
p1433
sg16
I200
sg17
g13
sg18
g13
sg19
g1244
sg21
g22
sbag7
(g8
g9
NtRp1434
(dp1435
g12
g13
sg14
S'Helvetica'
p1436
sg16
I700
sg17
g13
sg18
g13
sg19
g1245
sg21
g22
sbag7
(g8
g9
NtRp1437
(dp1438
g12
g13
sg14
S'ITC Zapf Dingbats'
p1439
sg16
I500
sg17
g13
sg18
g13
sg19
g1246
sg21
g22
sbag7
(g8
g9
NtRp1440
(dp1441
g12
g29
sg14
S'Times'
p1442
sg16
I500
sg17
g13
sg18
g13
sg19
g1247
sg21
g22
sbag7
(g8
g9
NtRp1443
(dp1444
g12
g29
sg14
S'Courier'
p1445
sg16
I700
sg17
g13
sg18
g13
sg19
g1248
sg21
g22
sbag7
(g8
g9
NtRp1446
(dp1447
g12
g13
sg14
S'Palatino'
p1448
sg16
I500
sg17
g13
sg18
g13
sg19
g1249
sg21
g22
sbag7
(g8
g9
NtRp1449
(dp1450
g12
g13
sg14
S'ITC Bookman'
p1451
sg16
I200
sg17
g13
sg18
g13
sg19
g1250
sg21
g22
sbag7
(g8
g9
NtRp1452
(dp1453
g12
g29
sg14
S'Courier'
p1454
sg16
I500
sg17
g13
sg18
g13
sg19
g1251
sg21
g22
sbag7
(g8
g9
NtRp1455
(dp1456
g12
g13
sg14
S'Times'
p1457
sg16
I700
sg17
g13
sg18
g13
sg19
g1252
sg21
g22
sbag7
(g8
g9
NtRp1458
(dp1459
g12
g29
sg14
S'Utopia'
p1460
sg16
I400
sg17
g13
sg18
g13
sg19
g1253
sg21
g22
sbag7
(g8
g9
NtRp1461
(dp1462
g12
g29
sg14
S'Palatino'
p1463
sg16
I500
sg17
g13
sg18
g13
sg19
g1254
sg21
g22
sbag7
(g8
g9
NtRp1464
(dp1465
g12
g29
sg14
S'Times'
p1466
sg16
I700
sg17
g13
sg18
g13
sg19
g1255
sg21
g22
sbag7
(g8
g9
NtRp1467
(dp1468
g12
g29
sg14
S'ITC Bookman'
p1469
sg16
I200
sg17
g13
sg18
g13
sg19
g1256
sg21
g22
sbag7
(g8
g9
NtRp1470
(dp1471
g12
g13
sg14
S'Utopia'
p1472
sg16
I400
sg17
g13
sg18
g13
sg19
g1257
sg21
g22
sbag7
(g8
g9
NtRp1473
(dp1474
g12
g13
sg14
S'ITC Avant Garde Gothic'
p1475
sg16
I600
sg17
g13
sg18
g13
sg19
g1258
sg21
g22
sbag7
(g8
g9
NtRp1476
(dp1477
g12
g13
sg14
S'New Century Schoolbook'
p1478
sg16
I500
sg17
g13
sg18
g13
sg19
g1259
sg21
g22
sbag7
(g8
g9
NtRp1479
(dp1480
g12
g29
sg14
S'ITC Bookman'
p1481
sg16
I600
sg17
g13
sg18
g13
sg19
g1260
sg21
g22
sbag7
(g8
g9
NtRp1482
(dp1483
g12
g13
sg14
S'Helvetica'
p1484
sg16
I500
sg17
g13
sg18
g13
sg19
g1261
sg21
g22
sbag7
(g8
g9
NtRp1485
(dp1486
g12
g13
sg14
S'Helvetica'
p1487
sg16
I700
sg17
g13
sg18
g13
sg19
g1262
sg21
g22
sbag7
(g8
g9
NtRp1488
(dp1489
g12
g13
sg14
S'URW Bookman L'
p1490
sg16
I700
sg17
g13
sg18
g13
sg19
g1263
sg21
g22
sbag7
(g8
g9
NtRp1491
(dp1492
g12
g13
sg14
S'LMMono10'
p1493
sg16
I400
sg17
g13
sg18
g13
sg19
g1264
sg21
g22
sbag7
(g8
g9
NtRp1494
(dp1495
g12
g13
sg14
S'Nimbus Sans L'
p1496
sg16
I400
sg17
g13
sg18
g13
sg19
g1265
sg21
g22
sbag7
(g8
g9
NtRp1497
(dp1498
g12
g13
sg14
S'Century Schoolbook L'
p1499
sg16
I700
sg17
g13
sg18
g13
sg19
g1266
sg21
g22
sbag7
(g8
g9
NtRp1500
(dp1501
g12
g29
sg14
S'Century Schoolbook L'
p1502
sg16
I400
sg17
g13
sg18
g13
sg19
g1267
sg21
g22
sbag7
(g8
g9
NtRp1503
(dp1504
g12
g13
sg14
S'LMRoman10'
p1505
sg16
I700
sg17
g13
sg18
g13
sg19
g1268
sg21
g22
sbag7
(g8
g9
NtRp1506
(dp1507
g12
g29
sg14
S'URW Gothic L'
p1508
sg16
I400
sg17
g13
sg18
g13
sg19
g1269
sg21
g22
sbag7
(g8
g9
NtRp1509
(dp1510
g12
g29
sg14
S'LMSansDemiCond10'
p1511
sg16
I600
sg17
g13
sg18
g13
sg19
g1270
sg21
g22
sbag7
(g8
g9
NtRp1512
(dp1513
g12
g13
sg14
S'LMSansQuot8'
p1514
sg16
I700
sg17
g13
sg18
g13
sg19
g1271
sg21
g22
sbag7
(g8
g9
NtRp1515
(dp1516
g12
g29
sg14
S'LMSansQuot8'
p1517
sg16
I400
sg17
g13
sg18
g13
sg19
g1272
sg21
g22
sbag7
(g8
g9
NtRp1518
(dp1519
g12
g29
sg14
S'Nimbus Sans L'
p1520
sg16
I700
sg17
g13
sg18
g13
sg19
g1273
sg21
g22
sbag7
(g8
g9
NtRp1521
(dp1522
g12
g13
sg14
S'LMRomanDemi10'
p1523
sg16
I600
sg17
g13
sg18
g13
sg19
g1274
sg21
g22
sbag7
(g8
g9
NtRp1524
(dp1525
g12
g29
sg14
S'URW Palladio L'
p1526
sg16
I700
sg17
g13
sg18
g13
sg19
g1275
sg21
g22
sbag7
(g8
g9
NtRp1527
(dp1528
g12
g13
sg14
S'LMSansQuot8'
p1529
sg16
I400
sg17
g13
sg18
g13
sg19
g1276
sg21
g22
sbag7
(g8
g9
NtRp1530
(dp1531
g12
g29
sg14
S'LMMonoPropLt10'
p1532
sg16
I700
sg17
g13
sg18
g13
sg19
g1277
sg21
g22
sbag7
(g8
g9
NtRp1533
(dp1534
g12
g29
sg14
S'LMRomanSlant10'
p1535
sg16
I700
sg17
g13
sg18
g13
sg19
g1278
sg21
g22
sbag7
(g8
g9
NtRp1536
(dp1537
g12
g13
sg14
S'Bitstream Charter'
p1538
sg16
I400
sg17
g13
sg18
g13
sg19
g1279
sg21
g22
sbag7
(g8
g9
NtRp1539
(dp1540
g12
g29
sg14
S'URW Chancery L'
p1541
sg16
I500
sg17
g13
sg18
g13
sg19
g1280
sg21
g22
sbag7
(g8
g9
NtRp1542
(dp1543
g12
g13
sg14
S'LMMonoCaps10'
p1544
sg16
I400
sg17
g13
sg18
g13
sg19
g1281
sg21
g22
sbag7
(g8
g9
NtRp1545
(dp1546
g12
g29
sg14
S'LMRomanCaps10'
p1547
sg16
I400
sg17
g13
sg18
g13
sg19
g1282
sg21
g22
sbag7
(g8
g9
NtRp1548
(dp1549
g12
g13
sg14
S'Symbol'
p1550
sg16
I400
sg17
g13
sg18
g13
sg19
g1283
sg21
g22
sbag7
(g8
g9
NtRp1551
(dp1552
g12
g13
sg14
S'URW Gothic L'
p1553
sg16
I600
sg17
g13
sg18
g13
sg19
g1284
sg21
g22
sbag7
(g8
g9
NtRp1554
(dp1555
g12
g13
sg14
S'LMMonoLtCond10'
p1556
sg16
I200
sg17
g13
sg18
g13
sg19
g1285
sg21
g22
sbag7
(g8
g9
NtRp1557
(dp1558
g12
g13
sg14
S'Nimbus Sans L'
p1559
sg16
I400
sg17
g13
sg18
g13
sg19
g1286
sg21
g22
sbag7
(g8
g9
NtRp1560
(dp1561
g12
g29
sg14
S'Nimbus Mono L'
p1562
sg16
I700
sg17
g13
sg18
g13
sg19
g1287
sg21
g22
sbag7
(g8
g9
NtRp1563
(dp1564
g12
g29
sg14
S'Bitstream Charter'
p1565
sg16
I700
sg17
g13
sg18
g13
sg19
g1288
sg21
g22
sbag7
(g8
g9
NtRp1566
(dp1567
g12
g13
sg14
S'LMMonoLt10'
p1568
sg16
I700
sg17
g13
sg18
g13
sg19
g1289
sg21
g22
sbag7
(g8
g9
NtRp1569
(dp1570
g12
g13
sg14
S'Nimbus Sans L'
p1571
sg16
I700
sg17
g13
sg18
g13
sg19
g1290
sg21
g22
sbag7
(g8
g9
NtRp1572
(dp1573
g12
g13
sg14
S'LMRomanDunh10'
p1574
sg16
I400
sg17
g13
sg18
g13
sg19
g1291
sg21
g22
sbag7
(g8
g9
NtRp1575
(dp1576
g12
g13
sg14
S'Dingbats'
p1577
sg16
I400
sg17
g13
sg18
g13
sg19
g1292
sg21
g22
sbag7
(g8
g9
NtRp1578
(dp1579
g12
g13
sg14
S'LMSans10'
p1580
sg16
I400
sg17
g13
sg18
g13
sg19
g1293
sg21
g22
sbag7
(g8
g9
NtRp1581
(dp1582
g12
g13
sg14
S'URW Bookman L'
p1583
sg16
I400
sg17
g13
sg18
g13
sg19
g1294
sg21
g22
sbag7
(g8
g9
NtRp1584
(dp1585
g12
g13
sg14
S'LMMonoProp10'
p1586
sg16
I400
sg17
g13
sg18
g13
sg19
g1295
sg21
g22
sbag7
(g8
g9
NtRp1587
(dp1588
g12
g29
sg14
S'URW Bookman L'
p1589
sg16
I400
sg17
g13
sg18
g13
sg19
g1296
sg21
g22
sbag7
(g8
g9
NtRp1590
(dp1591
g12
g29
sg14
S'LMRomanSlant10'
p1592
sg16
I400
sg17
g13
sg18
g13
sg19
g1297
sg21
g22
sbag7
(g8
g9
NtRp1593
(dp1594
g12
g29
sg14
S'URW Palladio L'
p1595
sg16
I400
sg17
g13
sg18
g13
sg19
g1298
sg21
g22
sbag7
(g8
g9
NtRp1596
(dp1597
g12
g29
sg14
S'LMRomanDunh10'
p1598
sg16
I400
sg17
g13
sg18
g13
sg19
g1299
sg21
g22
sbag7
(g8
g9
NtRp1599
(dp1600
g12
g29
sg14
S'Nimbus Roman No9 L'
p1601
sg16
I700
sg17
g13
sg18
g13
sg19
g1300
sg21
g22
sbag7
(g8
g9
NtRp1602
(dp1603
g12
g29
sg14
S'LMRoman10'
p1604
sg16
I700
sg17
g13
sg18
g13
sg19
g1301
sg21
g22
sbag7
(g8
g9
NtRp1605
(dp1606
g12
g29
sg14
S'Courier 10 Pitch'
p1607
sg16
I400
sg17
g13
sg18
g13
sg19
g1302
sg21
g22
sbag7
(g8
g9
NtRp1608
(dp1609
g12
g13
sg14
S'URW Palladio L'
p1610
sg16
I700
sg17
g13
sg18
g13
sg19
g1303
sg21
g22
sbag7
(g8
g9
NtRp1611
(dp1612
g12
g29
sg14
S'Century Schoolbook L'
p1613
sg16
I700
sg17
g13
sg18
g13
sg19
g1304
sg21
g22
sbag7
(g8
g9
NtRp1614
(dp1615
g12
g13
sg14
S'Nimbus Mono L'
p1616
sg16
I700
sg17
g13
sg18
g13
sg19
g1305
sg21
g22
sbag7
(g8
g9
NtRp1617
(dp1618
g12
g13
sg14
S'Courier 10 Pitch'
p1619
sg16
I700
sg17
g13
sg18
g13
sg19
g1306
sg21
g22
sbag7
(g8
g9
NtRp1620
(dp1621
g12
g29
sg14
S'LMMonoCaps10'
p1622
sg16
I400
sg17
g13
sg18
g13
sg19
g1307
sg21
g22
sbag7
(g8
g9
NtRp1623
(dp1624
g12
g29
sg14
S'LMMono10'
p1625
sg16
I400
sg17
g13
sg18
g13
sg19
g1308
sg21
g22
sbag7
(g8
g9
NtRp1626
(dp1627
g12
g29
sg14
S'LMSans10'
p1628
sg16
I700
sg17
g13
sg18
g13
sg19
g1309
sg21
g22
sbag7
(g8
g9
NtRp1629
(dp1630
g12
g29
sg14
S'URW Gothic L'
p1631
sg16
I600
sg17
g13
sg18
g13
sg19
g1310
sg21
g22
sbag7
(g8
g9
NtRp1632
(dp1633
g12
g13
sg14
S'LMRomanCaps10'
p1634
sg16
I400
sg17
g13
sg18
g13
sg19
g1311
sg21
g22
sbag7
(g8
g9
NtRp1635
(dp1636
g12
g29
sg14
S'Nimbus Sans L'
p1637
sg16
I400
sg17
g13
sg18
g13
sg19
g1312
sg21
g22
sbag7
(g8
g9
NtRp1638
(dp1639
g12
g29
sg14
S'LMMonoLt10'
p1640
sg16
I700
sg17
g13
sg18
g13
sg19
g1313
sg21
g22
sbag7
(g8
g9
NtRp1641
(dp1642
g12
g29
sg14
S'Nimbus Sans L'
p1643
sg16
I400
sg17
g13
sg18
g13
sg19
g1314
sg21
g22
sbag7
(g8
g9
NtRp1644
(dp1645
g12
g29
sg14
S'Courier 10 Pitch'
p1646
sg16
I700
sg17
g13
sg18
g13
sg19
g1315
sg21
g22
sbag7
(g8
g9
NtRp1647
(dp1648
g12
g29
sg14
S'LMRomanDemi10'
p1649
sg16
I600
sg17
g13
sg18
g13
sg19
g1316
sg21
g22
sbag7
(g8
g9
NtRp1650
(dp1651
g12
g29
sg14
S'Nimbus Mono L'
p1652
sg16
I400
sg17
g13
sg18
g13
sg19
g1317
sg21
g22
sbag7
(g8
g9
NtRp1653
(dp1654
g12
g29
sg14
S'LMRoman10'
p1655
sg16
I400
sg17
g13
sg18
g13
sg19
g1318
sg21
g22
sbag7
(g8
g9
NtRp1656
(dp1657
g12
g29
sg14
S'LMSansQuot8'
p1658
sg16
I700
sg17
g13
sg18
g13
sg19
g1320
sg21
g22
sbag7
(g8
g9
NtRp1659
(dp1660
g12
g13
sg14
S'URW Palladio L'
p1661
sg16
I500
sg17
g13
sg18
g13
sg19
g1321
sg21
g22
sbag7
(g8
g9
NtRp1662
(dp1663
g12
g13
sg14
S'LMRoman10'
p1664
sg16
I400
sg17
g13
sg18
g13
sg19
g1322
sg21
g22
sbag7
(g8
g9
NtRp1665
(dp1666
g12
g29
sg14
S'Bitstream Charter'
p1667
sg16
I400
sg17
g13
sg18
g13
sg19
g1323
sg21
g22
sbag7
(g8
g9
NtRp1668
(dp1669
g12
g13
sg14
S'URW Gothic L'
p1670
sg16
I400
sg17
g13
sg18
g13
sg19
g1324
sg21
g22
sbag7
(g8
g9
NtRp1671
(dp1672
g12
g29
sg14
S'LMMonoProp10'
p1673
sg16
I400
sg17
g13
sg18
g13
sg19
g1325
sg21
g22
sbag7
(g8
g9
NtRp1674
(dp1675
g12
g13
sg14
S'LMSansDemiCond10'
p1676
sg16
I600
sg17
g13
sg18
g13
sg19
g1326
sg21
g22
sbag7
(g8
g9
NtRp1677
(dp1678
g12
g13
sg14
S'LMSans10'
p1679
sg16
I700
sg17
g13
sg18
g13
sg19
g1327
sg21
g22
sbag7
(g8
g9
NtRp1680
(dp1681
g12
g29
sg14
S'Nimbus Sans L'
p1682
sg16
I700
sg17
g13
sg18
g13
sg19
g1328
sg21
g22
sbag7
(g8
g9
NtRp1683
(dp1684
g12
g13
sg14
S'LMMonoPropLt10'
p1685
sg16
I700
sg17
g13
sg18
g13
sg19
g1329
sg21
g22
sbag7
(g8
g9
NtRp1686
(dp1687
g12
g29
sg14
S'URW Bookman L'
p1688
sg16
I700
sg17
g13
sg18
g13
sg19
g1330
sg21
g22
sbag7
(g8
g9
NtRp1689
(dp1690
g12
g29
sg14
S'LMMonoSlant10'
p1691
sg16
I400
sg17
g13
sg18
g13
sg19
g1331
sg21
g22
sbag7
(g8
g9
NtRp1692
(dp1693
g12
g13
sg14
S'Standard Symbols L'
p1694
sg16
I400
sg17
g13
sg18
g13
sg19
g1332
sg21
g22
sbag7
(g8
g9
NtRp1695
(dp1696
g12
g29
sg14
S'LMMonoPropLt10'
p1697
sg16
I200
sg17
g13
sg18
g13
sg19
g1333
sg21
g22
sbag7
(g8
g9
NtRp1698
(dp1699
g12
g13
sg14
S'Century Schoolbook L'
p1700
sg16
I500
sg17
g13
sg18
g13
sg19
g1334
sg21
g22
sbag7
(g8
g9
NtRp1701
(dp1702
g12
g29
sg14
S'Nimbus Roman No9 L'
p1703
sg16
I400
sg17
g13
sg18
g13
sg19
g1335
sg21
g22
sbag7
(g8
g9
NtRp1704
(dp1705
g12
g13
sg14
S'Nimbus Roman No9 L'
p1706
sg16
I700
sg17
g13
sg18
g13
sg19
g1336
sg21
g22
sbag7
(g8
g9
NtRp1707
(dp1708
g12
g29
sg14
S'LMMonoLt10'
p1709
sg16
I200
sg17
g13
sg18
g13
sg19
g1337
sg21
g22
sbag7
(g8
g9
NtRp1710
(dp1711
g12
g13
sg14
S'Nimbus Mono L'
p1712
sg16
I400
sg17
g13
sg18
g13
sg19
g1338
sg21
g22
sbag7
(g8
g9
NtRp1713
(dp1714
g12
g13
sg14
S'LMMonoPropLt10'
p1715
sg16
I200
sg17
g13
sg18
g13
sg19
g1339
sg21
g22
sbag7
(g8
g9
NtRp1716
(dp1717
g12
g13
sg14
S'LMMonoLt10'
p1718
sg16
I200
sg17
g13
sg18
g13
sg19
g1340
sg21
g22
sbag7
(g8
g9
NtRp1719
(dp1720
g12
g29
sg14
S'LMSans10'
p1721
sg16
I400
sg17
g13
sg18
g13
sg19
g1341
sg21
g22
sbag7
(g8
g9
NtRp1722
(dp1723
g12
g13
sg14
S'Nimbus Sans L'
p1724
sg16
I700
sg17
g13
sg18
g13
sg19
g1342
sg21
g22
sbag7
(g8
g9
NtRp1725
(dp1726
g12
g13
sg14
S'LMRomanUnsl10'
p1727
sg16
I400
sg17
g13
sg18
g13
sg19
g1343
sg21
g22
sbag7
(g8
g9
NtRp1728
(dp1729
g12
g13
sg14
S'Nimbus Roman No9 L'
p1730
sg16
I400
sg17
g13
sg18
g13
sg19
g1344
sg21
g22
sbag7
(g8
g9
NtRp1731
(dp1732
g12
g29
sg14
S'LMMonoLtCond10'
p1733
sg16
I200
sg17
g13
sg18
g13
sg19
g1345
sg21
g22
sbag7
(g8
g9
NtRp1734
(dp1735
g12
g13
sg14
S'Bitstream Charter'
p1736
sg16
I700
sg17
g13
sg18
g13
sg19
g1346
sg21
g22
sbag7
(g8
g9
NtRp1737
(dp1738
g12
g13
sg14
S'Courier 10 Pitch'
p1739
sg16
I400
sg17
g13
sg18
g13
sg19
g1347
sg21
g22
sbasb.